(dp0
S'RH'
p1
(dp2
S'A'
p3
(dp4
S'S'
p5
(lp6
F211.11448097229004
aF211.647962808609
aF212.181293964386
aF212.71463298797607
aF213.24780583381653
aF213.78130197525024
aF214.31471300125122
aF214.84793496131897
aF215.3812758922577
aF215.91460800170898
aF216.4479398727417
aF216.98127102851868
aF217.51458096504211
aF218.04791283607483
aF218.58127093315125
aF219.11441898345947
aF219.64790892601013
aF220.1810908317566
aF220.71457290649414
aF221.24775385856628
aF221.78123784065247
aF222.3145649433136
aF222.8478879928589
aF223.38122296333313
aF223.914568901062
aF224.4478738307953
aF224.98123383522034
aF225.51452779769897
aF226.0478618144989
aF226.58123302459717
aF227.11437582969666
aF227.6478488445282
aF228.18103098869324
aF228.71450996398926
aF229.2476909160614
aF229.78129482269287
aF230.3145158290863
aF230.8478319644928
aF231.38116693496704
aF231.91449999809265
aF232.44783091545105
aF232.98115992546082
aF233.5144820213318
aF234.04779195785522
aF234.58117485046387
aF235.1145260334015
aF235.6477918624878
aF236.18098902702332
aF236.71446585655212
aF237.24763798713684
aF237.78112602233887
aF238.3144519329071
aF238.8477818965912
aF239.38111901283264
aF239.91444182395935
aF240.4477698802948
aF240.9811098575592
aF241.5144419670105
aF242.04776000976562
aF242.58111000061035
asS'M'
p7
(lp8
(S'right'
p9
F211.44920802116394
tp10
a(S'left'
p11
F211.96496391296387
tp12
a(S'right'
p13
F212.49822998046875
tp14
a(S'left'
p15
F213.0316789150238
tp16
a(S'right'
p17
F213.56486892700195
tp18
a(S'left'
p19
F213.81706881523132
tp20
a(S'right'
p21
F214.32920598983765
tp22
a(S'left'
p23
F214.89709186553955
tp24
a(S'right'
p25
F215.69818091392517
tp26
a(S'left'
p27
F216.23172092437744
tp28
a(S'right'
p29
F216.76495885849
tp30
a(S'left'
p31
F217.29831886291504
tp32
a(S'right'
p33
F217.83166694641113
tp34
a(S'left'
p35
F218.13705492019653
tp36
a(S'right'
p37
F218.6490888595581
tp38
a(S'left'
p39
F219.1370599269867
tp40
a(S'right'
p41
F219.6730408668518
tp42
a(S'left'
p43
F220.21707701683044
tp44
a(S'right'
p45
F220.76905584335327
tp46
a(S'left'
p47
F221.29701495170593
tp48
a(S'right'
p49
F221.82500290870667
tp50
a(S'left'
p51
F222.6315999031067
tp52
a(S'right'
p53
F222.89702486991882
tp54
a(S'left'
p55
F223.43300580978394
tp56
a(S'right'
p57
F223.99298691749573
tp58
a(S'left'
p59
F224.5450417995453
tp60
a(S'right'
p61
F225.0810089111328
tp62
a(S'left'
p63
F225.5609848499298
tp64
a(S'right'
p65
F226.08100581169128
tp66
a(S'left'
p67
F226.68102884292603
tp68
a(S'right'
p69
F227.4314408302307
tp70
a(S'left'
p71
F227.96491384506226
tp72
a(S'right'
p73
F228.49806880950928
tp74
a(S'left'
p75
F228.77696895599365
tp76
a(S'right'
p77
F229.2570459842682
tp78
a(S'left'
p79
F229.82495284080505
tp80
a(S'right'
p81
F230.40900993347168
tp82
a(S'left'
p83
F230.90495896339417
tp84
a(S'right'
p85
F231.44095993041992
tp86
a(S'left'
p87
F231.96893882751465
tp88
a(S'right'
p89
F232.48900890350342
tp90
a(S'left'
p91
F233.0169448852539
tp92
a(S'right'
p93
F233.54493498802185
tp94
a(S'left'
p95
F234.3652949333191
tp96
a(S'right'
p97
F234.89818286895752
tp98
a(S'left'
p99
F235.43153285980225
tp100
a(S'right'
p101
F235.67294001579285
tp102
a(S'left'
p103
F236.21691989898682
tp104
a(S'right'
p105
F236.60890293121338
tp106
a(S'left'
p107
F237.27293801307678
tp108
a(S'right'
p109
F238.09815883636475
tp110
a(S'left'
p111
F238.6314959526062
tp112
a(S'right'
p113
F239.16483187675476
tp114
a(S'left'
p115
F239.69816780090332
tp116
a(S'right'
p117
F239.95288181304932
tp118
a(S'left'
p119
F240.50495982170105
tp120
a(S'right'
p121
F240.96083688735962
tp122
a(S'left'
p123
F241.83145785331726
tp124
a(S'right'
p125
F241.99275994300842
tp126
a(S'left'
p127
F242.60093593597412
tp128
a(S'right'
p129
F243.08884382247925
tp130
assS'DT'
p131
(dp132
S'AS'
p133
(lp134
F431.21538186073303
aF431.87966680526733
aF432.513240814209
aF433.1798949241638
aF433.8464620113373
aF434.4800078868866
aF435.14667081832886
aF435.81298995018005
aF436.4465169906616
aF437.1131999492645
aF437.77964997291565
aF438.4131758213043
aF439.0798268318176
aF439.7462818622589
aF440.37995982170105
aF441.04662680625916
aF441.71296191215515
aF442.3464729785919
aF443.01314401626587
aF443.67957401275635
aF444.3131408691406
aF444.97979283332825
aF445.64623284339905
aF446.2797839641571
aF446.9464499950409
aF447.61303997039795
aF448.246426820755
aF448.91311597824097
aF449.5795419216156
aF450.21311593055725
aF450.8797519207001
aF451.54620695114136
aF452.1797490119934
aF452.8464059829712
aF453.51296401023865
aF454.14654898643494
aF454.8130428791046
aF455.4794898033142
aF456.11308097839355
aF456.77970600128174
aF457.4461419582367
aF458.07970094680786
aF458.74636483192444
aF459.41282296180725
aF460.0465040206909
aF460.7130148410797
asS'TM'
p135
(lp136
(S'space'
p137
F432.31340980529785
tp138
a(S'space'
p139
F432.5675950050354
tp140
a(S'space'
p141
F433.41896295547485
tp142
a(S'space'
p143
F434.431617975235
tp144
a(S'space'
p145
F435.8635799884796
tp146
a(S'space'
p147
F436.6795058250427
tp148
a(S'space'
p149
F437.95952582359314
tp150
a(S'space'
p151
F438.87998390197754
tp152
a(S'space'
p153
F439.74345993995667
tp154
a(S'space'
p155
F440.5674338340759
tp156
a(S'space'
p157
F441.4873068332672
tp158
a(S'space'
p159
F442.47941398620605
tp160
a(S'space'
p161
F443.6963520050049
tp162
a(S'space'
p163
F444.7799208164215
tp164
a(S'space'
p165
F445.6155118942261
tp166
a(S'space'
p167
F446.48746490478516
tp168
a(S'space'
p169
F447.35950684547424
tp170
a(S'space'
p171
F448.33546781539917
tp172
a(S'space'
p173
F449.6395058631897
tp174
a(S'space'
p175
F450.76725482940674
tp176
a(S'space'
p177
F451.57542300224304
tp178
a(S'space'
p179
F452.36744594573975
tp180
a(S'space'
p181
F453.22349190711975
tp182
a(S'space'
p183
F454.10337495803833
tp184
a(S'space'
p185
F455.1753149032593
tp186
a(S'space'
p187
F455.96739292144775
tp188
a(S'space'
p189
F457.2953460216522
tp190
a(S'space'
p191
F458.32955598831177
tp192
a(S'space'
p193
F459.35131883621216
tp194
a(S'space'
p195
F460.51317501068115
tp196
asS'AM'
p197
(lp198
(S'right'
p199
F425.52776885032654
tp200
a(S'right'
p201
F431.60770082473755
tp202
a(S'left'
p203
F431.9916169643402
tp204
a(S'right'
p205
F433.41308188438416
tp206
a(S'right'
p207
F435.4316248893738
tp208
a(S'left'
p209
F435.95934295654297
tp210
a(S'right'
p211
F436.37550687789917
tp212
a(S'left'
p213
F437.12986993789673
tp214
a(S'right'
p215
F437.46354579925537
tp216
a(S'left'
p217
F438.30343103408813
tp218
a(S'right'
p219
F439.50357699394226
tp220
a(S'left'
p221
F440.31952381134033
tp222
a(S'right'
p223
F440.98352098464966
tp224
a(S'left'
p225
F441.407509803772
tp226
a(S'right'
p227
F441.9194858074188
tp228
a(S'left'
p229
F442.3114128112793
tp230
a(S'right'
p231
F442.8350260257721
tp232
a(S'left'
p233
F443.2477059364319
tp234
a(S'right'
p235
F444.11325883865356
tp236
a(S'left'
p237
F445.0315339565277
tp238
a(S'right'
p239
F445.6954278945923
tp240
a(S'left'
p241
F446.10344982147217
tp242
a(S'right'
p243
F446.78339290618896
tp244
a(S'left'
p245
F447.399258852005
tp246
a(S'right'
p247
F448.0465519428253
tp248
a(S'left'
p249
F448.71324396133423
tp250
a(S'right'
p251
F448.9114308357239
tp252
a(S'right'
p253
F449.66324400901794
tp254
a(S'left'
p255
F450.0955219268799
tp256
a(S'right'
p257
F450.6799268722534
tp258
a(S'left'
p259
F451.38348603248596
tp260
a(S'right'
p261
F451.97990894317627
tp262
a(S'left'
p263
F452.6465678215027
tp264
a(S'right'
p265
F453.2392199039459
tp266
a(S'left'
p267
F453.94667983055115
tp268
a(S'right'
p269
F454.17974281311035
tp270
a(S'right'
p271
F454.86348485946655
tp272
a(S'right'
p273
F455.1630380153656
tp274
a(S'left'
p275
F455.49632692337036
tp276
a(S'right'
p277
F455.9751980304718
tp278
a(S'right'
p279
F456.5798738002777
tp280
a(S'left'
p281
F456.9834578037262
tp282
a(S'right'
p283
F457.35211396217346
tp284
a(S'left'
p285
F457.8798589706421
tp286
a(S'right'
p287
F458.06320881843567
tp288
a(S'left'
p289
F458.5516469478607
tp290
a(S'right'
p291
F458.91138100624084
tp292
a(S'left'
p293
F459.2953269481659
tp294
a(S'right'
p295
F459.84661984443665
tp296
a(S'left'
p297
F459.9671950340271
tp298
a(S'right'
p299
F460.63919591903687
tp300
asS'TS'
p301
(lp302
F431.5464370250702
aF432.5298388004303
aF433.51299691200256
aF434.4963409900665
aF435.4796209335327
aF436.4631779193878
aF437.44627690315247
aF438.4296338558197
aF439.41293382644653
aF440.39629101753235
aF441.3796010017395
aF442.36304688453674
aF443.3462438583374
aF444.32959389686584
aF445.3129279613495
aF446.2964208126068
aF447.27971291542053
aF448.263072013855
aF449.24622082710266
aF450.2296898365021
aF451.2128930091858
aF452.1964099407196
aF453.1795358657837
aF454.16304183006287
aF455.14619398117065
aF456.1297450065613
aF457.1128349304199
aF458.09635281562805
aF459.0794849395752
aF460.0630040168762
assS'DA'
p303
(dp304
g133
(lp305
F526.264750957489
aF526.929016828537
aF527.562600851059
aF528.2292408943176
aF528.8957839012146
aF529.5292599201202
aF530.1958878040314
aF530.8623340129852
aF531.4960389137268
aF532.1626808643341
aF532.8289859294891
aF533.4625208377838
aF534.129184961319
aF534.7956438064575
aF535.4291789531708
aF536.0958468914032
aF536.7622849941254
aF537.3958759307861
aF538.0624759197235
aF538.7290799617767
aF539.3626480102539
aF540.0291500091553
aF540.695611000061
aF541.3291299343109
aF541.9958229064941
aF542.6622488498688
aF543.2958238124847
aF543.9624578952789
aF544.6290328502655
aF545.262580871582
aF545.9292678833008
aF546.5955579280853
aF547.2291069030762
aF547.8957738876343
aF548.5621929168701
aF549.1957609653473
aF549.8624179363251
aF550.5288398265839
aF551.1625490188599
aF551.8290448188782
aF552.495502948761
aF553.1290488243103
aF553.7957229614258
aF554.4621338844299
aF555.0957508087158
aF555.7623798847198
asg135
(lp306
(S'space'
p307
F527.3628468513489
tp308
a(S'space'
p309
F528.4149379730225
tp310
a(S'space'
p311
F529.630973815918
tp312
a(S'space'
p313
F530.8149130344391
tp314
a(S'space'
p315
F531.3666849136353
tp316
a(S'space'
p317
F532.0229029655457
tp318
a(S'space'
p319
F532.6386749744415
tp320
a(S'space'
p321
F533.2947008609772
tp322
a(S'space'
p323
F534.1988439559937
tp324
a(S'space'
p325
F534.8308880329132
tp326
a(S'space'
p327
F535.3908588886261
tp328
a(S'space'
p329
F536.0548169612885
tp330
a(S'space'
p331
F536.6308019161224
tp332
a(S'space'
p333
F537.1961598396301
tp334
a(S'space'
p335
F537.8625779151917
tp336
a(S'space'
p337
F538.2957079410553
tp338
a(S'space'
p339
F538.7107758522034
tp340
a(S'space'
p341
F539.3428409099579
tp342
a(S'space'
p343
F539.9587848186493
tp344
a(S'space'
p345
F540.5667598247528
tp346
a(S'space'
p347
F541.1293249130249
tp348
a(S'space'
p349
F541.4628648757935
tp350
a(S'space'
p351
F542.0868158340454
tp352
a(S'space'
p353
F542.6789948940277
tp354
a(S'space'
p355
F543.270859003067
tp356
a(S'space'
p357
F543.8707659244537
tp358
a(S'space'
p359
F544.5907878875732
tp360
a(S'space'
p361
F545.3188478946686
tp362
a(S'space'
p363
F546.0148179531097
tp364
a(S'space'
p365
F546.6308000087738
tp366
a(S'space'
p367
F547.270838022232
tp368
a(S'space'
p369
F547.9507999420166
tp370
a(S'space'
p371
F548.6308038234711
tp372
a(S'space'
p373
F549.2708258628845
tp374
a(S'space'
p375
F549.9348340034485
tp376
a(S'space'
p377
F550.5747859477997
tp378
a(S'space'
p379
F551.158805847168
tp380
a(S'space'
p381
F551.7507498264313
tp382
a(S'space'
p383
F552.4014928340912
tp384
a(S'space'
p385
F553.0867118835449
tp386
a(S'space'
p387
F553.7667248249054
tp388
a(S'space'
p389
F554.4147348403931
tp390
a(S'space'
p391
F555.0786769390106
tp392
a(S'space'
p393
F555.7106869220734
tp394
asg197
(lp395
(S'right'
p396
F526.5670459270477
tp397
a(S'left'
p398
F527.0149610042572
tp399
a(S'right'
p400
F527.7269508838654
tp401
a(S'left'
p402
F528.4307098388672
tp403
a(S'right'
p404
F528.9909439086914
tp405
a(S'left'
p406
F529.65469789505
tp407
a(S'right'
p408
F530.2949388027191
tp409
a(S'left'
p410
F530.8306949138641
tp411
a(S'right'
p412
F531.3589429855347
tp413
a(S'left'
p414
F532.0786798000336
tp415
a(S'right'
p416
F532.5988988876343
tp417
a(S'left'
p418
F533.262717962265
tp419
a(S'right'
p420
F534.1188898086548
tp421
a(S'left'
p422
F534.9026689529419
tp423
a(S'right'
p424
F535.5348219871521
tp425
a(S'left'
p426
F536.1507949829102
tp427
a(S'right'
p428
F536.784914970398
tp429
a(S'left'
p430
F537.5108008384705
tp431
a(S'right'
p432
F538.3030409812927
tp433
a(S'left'
p434
F538.7458298206329
tp435
a(S'right'
p436
F539.4627950191498
tp437
a(S'left'
p438
F540.1267578601837
tp439
a(S'right'
p440
F541.129273891449
tp441
a(S'left'
p442
F541.7959489822388
tp443
a(S'right'
p444
F542.2348070144653
tp445
a(S'left'
p446
F542.8147058486938
tp447
a(S'right'
p448
F543.4147679805756
tp449
a(S'left'
p450
F544.0787518024445
tp451
a(S'right'
p452
F544.6468570232391
tp453
a(S'left'
p454
F545.3985939025879
tp455
a(S'right'
p456
F546.1025929450989
tp457
a(S'left'
p458
F546.7185859680176
tp459
a(S'right'
p460
F547.3505728244781
tp461
a(S'left'
p462
F547.9985718727112
tp463
a(S'right'
p464
F548.6705679893494
tp465
a(S'left'
p466
F549.3905680179596
tp467
a(S'right'
p468
F550.0305619239807
tp469
a(S'left'
p470
F550.662556886673
tp471
a(S'right'
p472
F551.2147037982941
tp473
a(S'left'
p474
F551.845743894577
tp475
a(S'right'
p476
F552.4785499572754
tp477
a(S'left'
p478
F553.2227628231049
tp479
a(S'right'
p480
F553.8786888122559
tp481
a(S'left'
p482
F554.5506858825684
tp483
a(S'right'
p484
F555.1907370090485
tp485
asg301
(lp486
F526.5957098007202
aF527.5791850090027
aF528.5623288154602
aF529.5458588600159
aF530.5289809703827
aF531.512305021286
aF532.4956319332123
aF533.4789958000183
aF534.4622898101807
aF535.4456799030304
aF536.4289319515228
aF537.4123208522797
aF538.3956098556519
aF539.3791270256042
aF540.3622629642487
aF541.3456349372864
aF542.3289198875427
aF543.3124248981476
aF544.2955768108368
aF545.2790749073029
aF546.2622129917145
aF547.2457468509674
aF548.2288768291473
aF549.2124059200287
aF550.1955308914185
aF551.1790399551392
aF552.1623318195343
aF553.1457200050354
aF554.1288449764252
aF555.1123669147491
assS'T'
p487
(dp488
g5
(lp489
F103.96521401405334
aF104.498694896698
aF105.03187203407288
aF105.56533885002136
aF106.09852886199951
aF106.6320219039917
aF107.16569495201111
aF107.69864583015442
aF108.23201298713684
aF108.76531887054443
aF109.29866790771484
aF109.83198881149292
aF110.36530995368958
aF110.89863896369934
aF111.43197894096375
aF111.96514987945557
aF112.49861788749695
aF113.03180599212646
aF113.56529092788696
aF114.09846997261047
aF114.63196301460266
aF115.16526794433594
aF115.69862580299377
aF116.23196601867676
aF116.76526880264282
aF117.29858779907227
aF117.83193802833557
aF118.36524987220764
aF118.89857602119446
aF119.43193292617798
aF119.96509385108948
aF120.49857091903687
aF121.03176283836365
aF121.56522703170776
aF122.09841299057007
aF122.63190197944641
aF123.16557192802429
aF123.6985719203949
aF124.23191499710083
aF124.76521492004395
aF125.29854702949524
aF125.83188891410828
aF126.36522102355957
aF126.89853000640869
aF127.43186688423157
aF127.9651448726654
aF128.4985179901123
aF129.0317039489746
aF129.56517696380615
aF130.09836387634277
aF130.631844997406
aF131.16516184806824
aF131.69858694076538
aF132.23184299468994
aF132.76515197753906
aF133.29847693443298
aF133.83182501792908
aF134.3651568889618
aF134.8984739780426
aF135.43179893493652
asg7
(lp490
(S'return'
p491
F104.28231501579285
tp492
a(S'return'
p493
F104.81571388244629
tp494
a(S'return'
p495
F105.34891080856323
tp496
a(S'return'
p497
F105.57131695747375
tp498
a(S'return'
p499
F106.04984092712402
tp500
a(S'return'
p501
F106.58580303192139
tp502
a(S'return'
p503
F107.16578698158264
tp504
a(S'return'
p505
F107.77776098251343
tp506
a(S'return'
p507
F108.29781889915466
tp508
a(S'return'
p509
F108.82577085494995
tp510
a(S'return'
p511
F109.32976698875427
tp512
a(S'return'
p513
F109.83212399482727
tp514
a(S'return'
p515
F110.3858118057251
tp516
a(S'return'
p517
F110.93776988983154
tp518
a(S'return'
p519
F111.51374888420105
tp520
a(S'return'
p521
F112.01780486106873
tp522
a(S'return'
p523
F112.52175283432007
tp524
a(S'return'
p525
F113.10575485229492
tp526
a(S'return'
p527
F113.64173483848572
tp528
a(S'return'
p529
F114.14577889442444
tp530
a(S'return'
p531
F114.67374086380005
tp532
a(S'return'
p533
F115.20973181724548
tp534
a(S'return'
p535
F115.69872403144836
tp536
a(S'return'
p537
F116.2320728302002
tp538
a(S'return'
p539
F116.78574085235596
tp540
a(S'return'
p541
F117.36171102523804
tp542
a(S'return'
p543
F117.90569186210632
tp544
a(S'return'
p545
F118.68230986595154
tp546
a(S'return'
p547
F119.2156138420105
tp548
a(S'return'
p549
F119.44203996658325
tp550
a(S'return'
p551
F119.96520781517029
tp552
a(S'return'
p553
F120.52168893814087
tp554
a(S'return'
p555
F121.0318558216095
tp556
a(S'return'
p557
F121.59368586540222
tp558
a(S'return'
p559
F122.41544890403748
tp560
a(S'return'
p561
F122.72168493270874
tp562
a(S'return'
p563
F123.1656699180603
tp564
a(S'return'
p565
F123.69866895675659
tp566
a(S'return'
p567
F124.24972796440125
tp568
a(S'return'
p569
F124.79367685317993
tp570
a(S'return'
p571
F125.35365295410156
tp572
a(S'return'
p573
F125.88964200019836
tp574
a(S'return'
p575
F126.43370580673218
tp576
a(S'return'
p577
F126.96963787078857
tp578
a(S'return'
p579
F127.48164081573486
tp580
a(S'return'
p581
F128.0417058467865
tp582
a(S'return'
p583
F128.5856590270996
tp584
a(S'return'
p585
F129.08963203430176
tp586
a(S'return'
p587
F129.59360694885254
tp588
a(S'return'
p589
F130.1376838684082
tp590
a(S'return'
p591
F130.66563892364502
tp592
a(S'return'
p593
F131.21765995025635
tp594
a(S'return'
p595
F131.76962399482727
tp596
a(S'return'
p597
F132.2816619873047
tp598
a(S'return'
p599
F132.80960988998413
tp600
a(S'return'
p601
F133.33760380744934
tp602
a(S'return'
p603
F133.84196281433105
tp604
a(S'return'
p605
F134.371248960495
tp606
a(S'return'
p607
F134.90592980384827
tp608
a(S'return'
p609
F135.4318928718567
tp610
assS'D'
p611
(dp612
g133
(lp613
F319.5495328903198
aF320.213791847229
aF320.8472969532013
aF321.513986825943
aF322.18040800094604
aF322.8139820098877
aF323.4806218147278
aF324.1470580101013
aF324.78075981140137
aF325.4474129676819
aF326.1137180328369
aF326.74726581573486
aF327.41393089294434
aF328.0803768634796
aF328.7139229774475
aF329.38058590888977
aF330.04701685905457
aF330.68056893348694
aF331.3472409248352
aF332.0138318538666
aF332.6472268104553
aF333.3138918876648
aF333.9803509712219
aF334.6138880252838
aF335.28055000305176
aF335.9469838142395
aF336.5805130004883
aF337.2472069263458
aF337.9137809276581
aF338.54733896255493
aF339.21385192871094
aF339.88025093078613
aF340.5138578414917
aF341.18049693107605
aF341.84692883491516
aF342.4804849624634
aF343.1471498012543
aF343.81366896629333
aF344.4472918510437
aF345.1138138771057
aF345.78021693229675
aF346.41382098197937
aF347.0804738998413
aF347.746896982193
aF348.3804409503937
aF349.0471189022064
asg135
(lp614
(S'space'
p615
F320.6474988460541
tp616
a(S'space'
p617
F320.912122964859
tp618
a(S'space'
p619
F321.40814995765686
tp620
a(S'space'
p621
F322.1971650123596
tp622
a(S'space'
p623
F322.7283618450165
tp624
a(S'space'
p625
F323.456307888031
tp626
a(S'space'
p627
F324.85637402534485
tp628
a(S'space'
p629
F325.5681428909302
tp630
a(S'space'
p631
F326.04031682014465
tp632
a(S'space'
p633
F326.7804799079895
tp634
a(S'space'
p635
F327.67219400405884
tp636
a(S'space'
p637
F328.5140960216522
tp638
a(S'space'
p639
F329.18077397346497
tp640
a(S'space'
p641
F329.632287979126
tp642
a(S'space'
p643
F330.23235297203064
tp644
a(S'space'
p645
F331.1474230289459
tp646
a(S'space'
p647
F331.8320508003235
tp648
a(S'space'
p649
F332.6241569519043
tp650
a(S'space'
p651
F333.3522439002991
tp652
a(S'space'
p653
F333.9201428890228
tp654
a(S'space'
p655
F334.5041329860687
tp656
a(S'space'
p657
F335.0807750225067
tp658
a(S'space'
p659
F335.45622301101685
tp660
a(S'space'
p661
F336.38075590133667
tp662
a(S'space'
p663
F337.0473909378052
tp664
a(S'space'
p665
F337.4242298603058
tp666
a(S'space'
p667
F338.12801790237427
tp668
a(S'space'
p669
F339.0139830112457
tp670
a(S'space'
p671
F340.3139879703522
tp672
a(S'space'
p673
F340.73598194122314
tp674
a(S'space'
p675
F341.35219502449036
tp676
a(S'space'
p677
F341.8961799144745
tp678
a(S'space'
p679
F342.5361428260803
tp680
a(S'space'
p681
F343.28021693229675
tp682
a(S'space'
p683
F343.8481888771057
tp684
a(S'space'
p685
F344.4885308742523
tp686
a(S'space'
p687
F345.0881450176239
tp688
a(S'space'
p689
F345.5761070251465
tp690
a(S'space'
p691
F345.9520628452301
tp692
a(S'space'
p693
F346.38408493995667
tp694
a(S'space'
p695
F346.92005801200867
tp696
a(S'space'
p697
F347.52004289627075
tp698
a(S'space'
p699
F348.32807993888855
tp700
a(S'space'
p701
F349.0079619884491
tp702
asg197
(lp703
(S'right'
p704
F319.99246096611023
tp705
a(S'left'
p706
F320.90438079833984
tp707
a(S'right'
p708
F321.3141508102417
tp709
a(S'left'
p710
F321.4161128997803
tp711
a(S'right'
p712
F322.0804798603058
tp713
a(S'left'
p714
F322.8490478992462
tp715
a(S'right'
p716
F323.72060990333557
tp717
a(S'left'
p718
F324.2083058357239
tp719
a(S'left'
p720
F325.56033396720886
tp721
a(S'right'
p722
F326.04807782173157
tp723
a(S'left'
p724
F326.8642280101776
tp725
a(S'right'
p726
F327.5843768119812
tp727
a(S'left'
p728
F328.5140469074249
tp729
a(S'right'
p730
F328.96424102783203
tp731
a(S'left'
p732
F329.6560628414154
tp733
a(S'right'
p734
F330.48081493377686
tp735
a(S'left'
p736
F331.1475110054016
tp737
a(S'right'
p738
F331.71268582344055
tp739
a(S'left'
p740
F332.4473569393158
tp741
a(S'right'
p742
F333.1140158176422
tp743
a(S'left'
p744
F333.8804290294647
tp745
a(S'right'
p746
F334.1521258354187
tp747
a(S'left'
p748
F334.69619393348694
tp749
a(S'right'
p750
F335.48002099990845
tp751
a(S'left'
p752
F336.3806400299072
tp753
a(S'right'
p754
F337.04733896255493
tp755
a(S'left'
p756
F337.4400038719177
tp757
a(S'right'
p758
F337.99221897125244
tp759
a(S'left'
p760
F338.45612382888794
tp761
a(S'right'
p762
F339.40021681785583
tp763
a(S'left'
p764
F339.9362277984619
tp765
a(S'right'
p766
F340.64824199676514
tp767
a(S'left'
p768
F341.4136698246002
tp769
a(S'right'
p770
F342.2806589603424
tp771
a(S'right'
p772
F343.392128944397
tp773
a(S'left'
p774
F344.01596784591675
tp775
a(S'right'
p776
F344.60005283355713
tp777
a(S'left'
p778
F345.2480618953705
tp779
a(S'right'
p780
F345.7969949245453
tp781
a(S'left'
p782
F346.6636610031128
tp783
a(S'right'
p784
F347.24803495407104
tp785
a(S'left'
p786
F347.776074886322
tp787
a(S'right'
p788
F348.8472509384155
tp789
asg301
(lp790
F319.8804488182068
aF320.86396193504333
aF321.847042798996
aF322.8306429386139
aF323.8137378692627
aF324.797091960907
aF325.7803750038147
aF326.76375699043274
aF327.7470350265503
aF328.7303948402405
aF329.71368980407715
aF330.6970489025116
aF331.6804687976837
aF332.66389298439026
aF333.64710903167725
aF334.6303160190582
aF335.6136758327484
aF336.597177028656
aF337.5804569721222
aF338.56381702423096
aF339.54697489738464
aF340.530464887619
aF341.51359391212463
aF342.49711179733276
aF343.48026299476624
aF344.4638149738312
aF345.44693183898926
aF346.4304368495941
aF347.41359281539917
aF348.39709186553955
asssS'LH'
p791
(dp792
g3
(dp793
g5
(lp794
F259.5141580104828
aF260.0476379394531
aF260.58082389831543
aF261.1143889427185
aF261.6474668979645
aF262.18098187446594
aF262.7142918109894
aF263.2476089000702
aF263.7809398174286
aF264.31426787376404
aF264.84763503074646
aF265.3809669017792
aF265.914274930954
aF266.4476079940796
aF266.98094487190247
aF267.51409888267517
aF268.04758882522583
aF268.58075499534607
aF269.114266872406
aF269.6473979949951
aF270.1809070110321
aF270.7142379283905
aF271.2475769519806
aF271.78088784217834
aF272.31422996520996
aF272.8475639820099
aF273.38090682029724
aF273.91420698165894
aF274.44756603240967
aF274.9808700084686
aF275.51404094696045
aF276.0475330352783
aF276.5807340145111
aF277.1141788959503
aF277.64734292030334
aF278.1808488368988
aF278.7141799926758
aF279.2475218772888
aF279.780827999115
aF280.31416487693787
aF280.84752798080444
aF281.3808329105377
aF281.914263010025
aF282.4474949836731
aF282.980819940567
aF283.5139708518982
aF284.04747581481934
aF284.5808160305023
aF285.1141469478607
aF285.64730882644653
aF286.18081998825073
aF286.71411299705505
aF287.2475438117981
aF287.7807879447937
aF288.31411695480347
aF288.8474450111389
aF289.38077902793884
aF289.9141218662262
aF290.4474358558655
aF290.98076486587524
asg7
(lp795
(S'd'
p796
F259.8329679965973
tp797
a(S'a'
p798
F260.3647940158844
tp799
a(S'd'
p800
F260.6648049354553
tp801
a(S'a'
p802
F261.12112498283386
tp803
a(S'd'
p804
F261.608699798584
tp805
a(S'a'
p806
F262.14474296569824
tp807
a(S'd'
p808
F262.67278695106506
tp809
a(S'a'
p810
F263.2477068901062
tp811
a(S'd'
p812
F263.7869348526001
tp813
a(S'a'
p814
F264.29665899276733
tp815
a(S'd'
p816
F264.8727819919586
tp817
a(S'a'
p818
F265.38106083869934
tp819
a(S'd'
p820
F265.89668583869934
tp821
a(S'a'
p822
F266.40076780319214
tp823
a(S'd'
p824
F267.02473282814026
tp825
a(S'a'
p826
F267.8311789035797
tp827
a(S'd'
p828
F268.365131855011
tp829
a(S'a'
p830
F268.6647448539734
tp831
a(S'd'
p832
F269.1447010040283
tp833
a(S'a'
p834
F269.6492569446564
tp835
a(S'd'
p836
F270.200758934021
tp837
a(S'a'
p838
F270.7607479095459
tp839
a(S'd'
p840
F271.3366918563843
tp841
a(S'a'
p842
F272.0979378223419
tp843
a(S'd'
p844
F272.63128900527954
tp845
a(S'a'
p846
F273.16462683677673
tp847
a(S'd'
p848
F273.69778180122375
tp849
a(S'a'
p850
F274.0006368160248
tp851
a(S'd'
p852
F274.76459789276123
tp853
a(S'a'
p854
F275.04865288734436
tp855
a(S'd'
p856
F275.831111907959
tp857
a(S'a'
p858
F276.09663796424866
tp859
a(S'd'
p860
F276.600713968277
tp861
a(S'a'
p862
F277.1446588039398
tp863
a(S'd'
p864
F277.64921593666077
tp865
a(S'a'
p866
F278.19285893440247
tp867
a(S'd'
p868
F278.80068588256836
tp869
a(S'a'
p870
F279.2886378765106
tp871
a(S'd'
p872
F279.83262181282043
tp873
a(S'a'
p874
F280.3445999622345
tp875
a(S'd'
p876
F281.1645770072937
tp877
a(S'a'
p878
F281.4406199455261
tp879
a(S'd'
p880
F281.9445869922638
tp881
a(S'a'
p882
F282.44761395454407
tp883
a(S'd'
p884
F283.29772090911865
tp885
a(S'a'
p886
F283.8310799598694
tp887
a(S'd'
p888
F284.36451983451843
tp889
a(S'a'
p890
F284.6566758155823
tp891
a(S'd'
p892
F285.16058588027954
tp893
a(S'a'
p894
F285.6474018096924
tp895
a(S'd'
p896
F286.0565400123596
tp897
a(S'a'
p898
F286.77663803100586
tp899
a(S'd'
p900
F287.5649108886719
tp901
a(S'a'
p902
F288.09765791893005
tp903
a(S'd'
p904
F288.63106298446655
tp905
a(S'a'
p906
F289.1645259857178
tp907
a(S'd'
p908
F289.69763803482056
tp909
a(S'a'
p910
F290.23114681243896
tp911
a(S'd'
p912
F290.7644908428192
tp913
a(S'a'
p914
F291.2976849079132
tp915
assg131
(dp916
g133
(lp917
F476.0482699871063
aF476.71284890174866
aF477.34636998176575
aF478.01290488243103
aF478.67932200431824
aF479.31291484832764
aF479.9795479774475
aF480.6459889411926
aF481.27955293655396
aF481.9461998939514
aF482.6128079891205
aF483.2463300228119
aF483.912880897522
aF484.5793058872223
aF485.21284890174866
aF485.879518032074
aF486.54595398902893
aF487.17949390411377
aF487.84615993499756
aF488.5126178264618
aF489.14632201194763
aF489.81301403045654
aF490.47926688194275
aF491.11280703544617
aF491.77946281433105
aF492.44598484039307
aF493.07948184013367
aF493.7461349964142
aF494.412575006485
aF495.0461149215698
aF495.7129349708557
aF496.379362821579
aF497.0127840042114
aF497.67941880226135
aF498.34586095809937
aF498.97942185401917
aF499.6460859775543
aF500.3125329017639
aF500.9460949897766
aF501.612753868103
aF502.2791659832001
aF502.91288900375366
aF503.57939887046814
aF504.2458209991455
aF504.8793909549713
aF505.5460398197174
asg135
(lp918
(S'return'
p919
F476.0953719615936
tp920
a(S'return'
p921
F476.8470649719238
tp922
a(S'return'
p923
F477.2952690124512
tp924
a(S'return'
p925
F478.28705191612244
tp926
a(S'return'
p927
F479.3832268714905
tp928
a(S'return'
p929
F480.4792618751526
tp930
a(S'return'
p931
F481.31930685043335
tp932
a(S'return'
p933
F482.2961528301239
tp934
a(S'return'
p935
F483.31116795539856
tp936
a(S'return'
p937
F484.27913188934326
tp938
a(S'return'
p939
F485.6871609687805
tp940
a(S'return'
p941
F486.11277294158936
tp942
a(S'return'
p943
F487.2231698036194
tp944
a(S'return'
p945
F488.19605588912964
tp946
a(S'return'
p947
F489.374972820282
tp948
a(S'return'
p949
F490.2791848182678
tp950
a(S'return'
p951
F491.2552099227905
tp952
a(S'return'
p953
F492.30295491218567
tp954
a(S'return'
p955
F493.30315494537354
tp956
a(S'return'
p957
F494.09594798088074
tp958
a(S'return'
p959
F495.51310896873474
tp960
a(S'return'
p961
F496.3349230289459
tp962
a(S'return'
p963
F497.47967982292175
tp964
a(S'return'
p965
F498.25538396835327
tp966
a(S'return'
p967
F499.44628286361694
tp968
a(S'return'
p969
F500.16690492630005
tp970
a(S'return'
p971
F501.0629868507385
tp972
a(S'return'
p973
F501.8630139827728
tp974
a(S'return'
p975
F502.39108180999756
tp976
a(S'return'
p977
F503.3795278072357
tp978
a(S'return'
p979
F503.9589788913727
tp980
a(S'return'
p981
F505.1110408306122
tp982
asg197
(lp983
(S'a'
p984
F476.4633159637451
tp985
a(S'd'
p986
F476.5670528411865
tp987
a(S'a'
p988
F476.78324484825134
tp989
a(S'a'
p990
F477.31905698776245
tp991
a(S'd'
p992
F477.8792908191681
tp993
a(S'a'
p994
F478.2792749404907
tp995
a(S'd'
p996
F479.1130669116974
tp997
a(S'a'
p998
F479.11314392089844
tp999
a(S'd'
p1000
F479.8151710033417
tp1001
a(S'a'
p1002
F480.8071608543396
tp1003
a(S'd'
p1004
F481.79918384552
tp1005
a(S'a'
p1006
F482.05519580841064
tp1007
a(S'd'
p1008
F483.0465519428253
tp1009
a(S'a'
p1010
F483.2633378505707
tp1011
a(S'd'
p1012
F483.7671480178833
tp1013
a(S'a'
p1014
F484.21519899368286
tp1015
a(S'd'
p1016
F485.24607396125793
tp1017
a(S'a'
p1018
F486.0951979160309
tp1019
a(S'd'
p1020
F487.1752920150757
tp1021
a(S'a'
p1022
F487.7751729488373
tp1023
a(S'd'
p1024
F488.51108384132385
tp1025
a(S'a'
p1026
F488.9464440345764
tp1027
a(S'd'
p1028
F489.3192238807678
tp1029
a(S'a'
p1030
F489.77512383461
tp1031
a(S'd'
p1032
F490.29496693611145
tp1033
a(S'a'
p1034
F490.91293597221375
tp1035
a(S'd'
p1036
F491.26295280456543
tp1037
a(S'a'
p1038
F491.79619097709656
tp1039
a(S'd'
p1040
F492.22316002845764
tp1041
a(S'a'
p1042
F492.46271681785583
tp1043
a(S'd'
p1044
F492.93513798713684
tp1045
a(S'a'
p1046
F493.31094789505005
tp1047
a(S'd'
p1048
F493.82316493988037
tp1049
a(S'a'
p1050
F493.98516488075256
tp1051
a(S'd'
p1052
F494.5031409263611
tp1053
a(S'a'
p1054
F494.8462688922882
tp1055
a(S'd'
p1056
F495.79114985466003
tp1057
a(S'a'
p1058
F496.32714796066284
tp1059
a(S'd'
p1060
F496.8129048347473
tp1061
a(S'a'
p1062
F497.0459849834442
tp1063
a(S'd'
p1064
F497.47959089279175
tp1065
a(S'a'
p1066
F497.75112891197205
tp1067
a(S'd'
p1068
F498.1991219520569
tp1069
a(S'd'
p1070
F498.2709128856659
tp1071
a(S'a'
p1072
F498.7795419692993
tp1073
a(S'd'
p1074
F499.4462339878082
tp1075
a(S'a'
p1076
F499.44635486602783
tp1077
a(S'd'
p1078
F499.8951368331909
tp1079
a(S'a'
p1080
F500.04705786705017
tp1081
a(S'd'
p1082
F500.746218919754
tp1083
a(S'a'
p1084
F500.9850800037384
tp1085
a(S'd'
p1086
F501.4870319366455
tp1087
a(S'a'
p1088
F501.67102789878845
tp1089
a(S'a'
p1090
F502.4228849411011
tp1091
a(S'd'
p1092
F502.9460709095001
tp1093
a(S'a'
p1094
F503.07100892066956
tp1095
a(S'd'
p1096
F503.59610891342163
tp1097
a(S'a'
p1098
F503.87901282310486
tp1099
a(S'd'
p1100
F504.6795058250427
tp1101
a(S'a'
p1102
F504.7269558906555
tp1103
a(S'd'
p1104
F505.346275806427
tp1105
asg301
(lp1106
F476.37954902648926
aF477.3627278804779
aF478.345990896225
aF479.32953095436096
aF480.31267499923706
aF481.29601788520813
aF482.27930903434753
aF483.26265692710876
aF484.24596190452576
aF485.2292969226837
aF486.21262884140015
aF487.19598293304443
aF488.17926502227783
aF489.16279196739197
aF490.1460909843445
aF491.12946486473083
aF492.11261081695557
aF493.09614992141724
aF494.07924485206604
aF495.0627529621124
aF496.04602789878845
aF497.0294179916382
aF498.01258993148804
aF498.9960799217224
aF499.9792129993439
aF500.9626729488373
aF501.94599986076355
aF502.9293429851532
aF503.9125249385834
aF504.89603185653687
assg303
(dp1107
g133
(lp1108
F571.797641992569
aF572.4621798992157
aF573.0956139564514
aF573.7622468471527
aF574.4286949634552
aF575.062246799469
aF575.7288949489594
aF576.3953649997711
aF577.0288999080658
aF577.6955749988556
aF578.3621408939362
aF578.9957308769226
aF579.6623709201813
aF580.3286798000336
aF580.9622099399567
aF581.6289119720459
aF582.2953188419342
aF582.9288840293884
aF583.5955429077148
aF584.2619609832764
aF584.89568400383
aF585.5623319149017
aF586.2286169528961
aF586.8621678352356
aF587.5288238525391
aF588.1952860355377
aF588.8288450241089
aF589.4954979419708
aF590.1619260311127
aF590.7955799102783
aF591.4623239040375
aF592.128741979599
aF592.7621278762817
aF593.428787946701
aF594.0952298641205
aF594.7287809848785
aF595.3954498767853
aF596.0618569850922
aF596.6954379081726
aF597.362056016922
aF598.0285179615021
aF598.6622138023376
aF599.3287379741669
aF599.9951748847961
aF600.6287248134613
aF601.2953879833221
asg135
(lp1109
(S'return'
p1110
F573.2624039649963
tp1111
a(S'return'
p1112
F574.02254986763
tp1113
a(S'return'
p1114
F574.5825409889221
tp1115
a(S'return'
p1116
F575.1505479812622
tp1117
a(S'return'
p1118
F576.3503868579865
tp1119
a(S'return'
p1120
F577.4957089424133
tp1121
a(S'return'
p1122
F577.9665160179138
tp1123
a(S'return'
p1124
F578.7958509922028
tp1125
a(S'return'
p1126
F579.2455999851227
tp1127
a(S'return'
p1128
F579.8703579902649
tp1129
a(S'return'
p1130
F580.7623279094696
tp1131
a(S'return'
p1132
F581.190346956253
tp1133
a(S'return'
p1134
F581.8865008354187
tp1135
a(S'return'
p1136
F582.7290458679199
tp1137
a(S'return'
p1138
F583.1787059307098
tp1139
a(S'return'
p1140
F583.7263329029083
tp1141
a(S'return'
p1142
F584.2944729328156
tp1143
a(S'return'
p1144
F584.9903178215027
tp1145
a(S'return'
p1146
F585.5788488388062
tp1147
a(S'return'
p1148
F586.1904349327087
tp1149
a(S'return'
p1150
F586.9664587974548
tp1151
a(S'return'
p1152
F587.7745838165283
tp1153
a(S'return'
p1154
F588.6463339328766
tp1155
a(S'return'
p1156
F589.5121958255768
tp1157
a(S'return'
p1158
F590.2624559402466
tp1159
a(S'return'
p1160
F591.5822839736938
tp1161
a(S'return'
p1162
F592.2064368724823
tp1163
a(S'return'
p1164
F593.2289550304413
tp1165
a(S'return'
p1166
F593.4783308506012
tp1167
a(S'return'
p1168
F594.2704169750214
tp1169
a(S'return'
p1170
F594.978590965271
tp1171
a(S'return'
p1172
F595.63876080513
tp1173
a(S'return'
p1174
F596.4956169128418
tp1175
a(S'return'
p1176
F597.162232875824
tp1177
a(S'return'
p1178
F597.59543800354
tp1179
a(S'return'
p1180
F598.1902449131012
tp1181
a(S'return'
p1182
F598.9120419025421
tp1183
a(S'return'
p1184
F599.5262370109558
tp1185
a(S'return'
p1186
F600.0783770084381
tp1187
a(S'return'
p1188
F600.7344019412994
tp1189
asg197
(lp1190
(S'd'
p1191
F572.0867319107056
tp1192
a(S'a'
p1193
F572.5986340045929
tp1194
a(S'd'
p1195
F573.2466909885406
tp1196
a(S'a'
p1197
F573.9186339378357
tp1198
a(S'd'
p1199
F574.3905549049377
tp1200
a(S'a'
p1201
F574.9985418319702
tp1202
a(S'd'
p1203
F575.6865999698639
tp1204
a(S'a'
p1205
F576.3426070213318
tp1206
a(S'd'
p1207
F576.9505829811096
tp1208
a(S'a'
p1209
F577.8786008358002
tp1210
a(S'd'
p1211
F578.4625790119171
tp1212
a(S'a'
p1213
F579.1825819015503
tp1214
a(S'd'
p1215
F579.8385829925537
tp1216
a(S'a'
p1217
F580.4225749969482
tp1218
a(S'd'
p1219
F581.118558883667
tp1220
a(S'a'
p1221
F581.8065958023071
tp1222
a(S'd'
p1223
F582.3505218029022
tp1224
a(S'a'
p1225
F583.1505589485168
tp1226
a(S'd'
p1227
F583.7025640010834
tp1228
a(S'a'
p1229
F584.2465448379517
tp1230
a(S'd'
p1231
F584.9351348876953
tp1232
a(S'a'
p1233
F585.5025758743286
tp1234
a(S'd'
p1235
F586.1024990081787
tp1236
a(S'a'
p1237
F586.8544960021973
tp1238
a(S'd'
p1239
F587.7823028564453
tp1240
a(S'a'
p1241
F588.628968000412
tp1242
a(S'd'
p1243
F589.2956898212433
tp1244
a(S'a'
p1245
F589.9985280036926
tp1246
a(S'd'
p1247
F590.5957078933716
tp1248
a(S'a'
p1249
F590.8388149738312
tp1250
a(S'd'
p1251
F591.4945390224457
tp1252
a(S'a'
p1253
F592.1185519695282
tp1254
a(S'd'
p1255
F592.806825876236
tp1256
a(S'a'
p1257
F593.4466519355774
tp1258
a(S'd'
p1259
F594.078469991684
tp1260
a(S'a'
p1261
F594.7824568748474
tp1262
a(S'd'
p1263
F595.4122078418732
tp1264
a(S'a'
p1265
F596.4955668449402
tp1266
a(S'd'
p1267
F596.9452848434448
tp1268
a(S'a'
p1269
F597.4944829940796
tp1270
a(S'd'
p1271
F598.062451839447
tp1272
a(S'a'
p1273
F598.726438999176
tp1274
a(S'd'
p1275
F599.3664689064026
tp1276
a(S'a'
p1277
F599.958447933197
tp1278
a(S'd'
p1279
F600.5664169788361
tp1280
asg301
(lp1281
F572.1287288665771
aF573.1122050285339
aF574.095360994339
aF575.0788810253143
aF576.061999797821
aF577.0453410148621
aF578.0286648273468
aF579.0120069980621
aF579.9953329563141
aF580.9786608219147
aF581.9619739055634
aF582.9453449249268
aF583.9286308288574
aF584.9121308326721
aF585.8954598903656
aF586.8787858486176
aF587.8619358539581
aF588.8454658985138
aF589.8286018371582
aF590.8120489120483
aF591.7954108715057
aF592.7787230014801
aF593.7619118690491
aF594.7453808784485
aF595.7285318374634
aF596.7120180130005
aF597.6953690052032
aF598.6787178516388
aF599.6618599891663
aF600.6453399658203
assg487
(dp1282
g5
(lp1283
F155.1316750049591
aF155.6649889945984
aF156.19835782051086
aF156.7317078113556
aF157.26499581336975
aF157.79843091964722
aF158.3316969871521
aF158.86498880386353
aF159.39836382865906
aF159.93148493766785
aF160.464989900589
aF160.9981608390808
aF161.53161883354187
aF162.06492280960083
aF162.5983259677887
aF163.13162398338318
aF163.6649329662323
aF164.19830083847046
aF164.73163199424744
aF165.26494598388672
aF165.79829287528992
aF166.33161401748657
aF166.86492800712585
aF167.39826202392578
aF167.9314320087433
aF168.46494793891907
aF168.99810695648193
aF169.53155398368835
aF170.06474781036377
aF170.59826493263245
aF171.1315598487854
aF171.6648998260498
aF172.1982569694519
aF172.73158192634583
aF173.2649040222168
aF173.79823684692383
aF174.33156299591064
aF174.86487698554993
aF175.39823389053345
aF175.93137001991272
aF176.46487402915955
aF176.998046875
aF177.53150701522827
aF178.06469988822937
aF178.59824085235596
aF179.131520986557
aF179.66485691070557
aF180.1981918811798
aF180.73154187202454
aF181.26494193077087
aF181.79823899269104
aF182.33153080940247
aF182.86481881141663
aF183.39817786216736
aF183.93132090568542
aF184.46483492851257
aF184.9979968070984
aF185.53146600723267
aF186.06465888023376
aF186.59815502166748
asg7
(lp1284
(S'space'
p1285
F154.92193603515625
tp1286
a(S'space'
p1287
F154.98524379730225
tp1288
a(S'space'
p1289
F156.24148201942444
tp1290
a(S'space'
p1291
F156.80947494506836
tp1292
a(S'space'
p1293
F157.5820188522339
tp1294
a(S'space'
p1295
F157.81750583648682
tp1296
a(S'space'
p1297
F158.33180785179138
tp1298
a(S'space'
p1299
F158.81759095191956
tp1300
a(S'space'
p1301
F159.40437293052673
tp1302
a(S'space'
p1303
F159.9315779209137
tp1304
a(S'space'
p1305
F160.4254288673401
tp1306
a(S'space'
p1307
F160.99825501441956
tp1308
a(S'space'
p1309
F161.56139993667603
tp1310
a(S'space'
p1311
F162.09747099876404
tp1312
a(S'space'
p1313
F162.6174190044403
tp1314
a(S'space'
p1315
F163.16139698028564
tp1316
a(S'space'
p1317
F163.7533848285675
tp1318
a(S'space'
p1319
F164.51530981063843
tp1320
a(S'space'
p1321
F164.80940794944763
tp1322
a(S'space'
p1323
F165.2734019756317
tp1324
a(S'space'
p1325
F165.80971002578735
tp1326
a(S'space'
p1327
F166.33171486854553
tp1328
a(S'space'
p1329
F166.78533291816711
tp1330
a(S'space'
p1331
F167.40417981147766
tp1332
a(S'space'
p1333
F167.94533896446228
tp1334
a(S'space'
p1335
F168.5134198665619
tp1336
a(S'space'
p1337
F169.0653669834137
tp1338
a(S'space'
p1339
F169.58536195755005
tp1340
a(S'space'
p1341
F170.0894010066986
tp1342
a(S'space'
p1343
F170.68934202194214
tp1344
a(S'space'
p1345
F171.44863486289978
tp1346
a(S'space'
p1347
F171.98189902305603
tp1348
a(S'space'
p1349
F172.5152518749237
tp1350
a(S'space'
p1351
F172.82534193992615
tp1352
a(S'space'
p1353
F173.32934093475342
tp1354
a(S'space'
p1355
F173.83331084251404
tp1356
a(S'space'
p1357
F174.31333684921265
tp1358
a(S'space'
p1359
F174.87333393096924
tp1360
a(S'space'
p1361
F175.4096508026123
tp1362
a(S'space'
p1363
F175.94529390335083
tp1364
a(S'space'
p1365
F176.51336979866028
tp1366
a(S'space'
p1367
F177.06531286239624
tp1368
a(S'space'
p1369
F177.57728600502014
tp1370
a(S'space'
p1371
F178.1214098930359
tp1372
a(S'space'
p1373
F178.64129185676575
tp1374
a(S'space'
p1375
F179.16126680374146
tp1376
a(S'space'
p1377
F179.69737100601196
tp1378
a(S'space'
p1379
F180.23336100578308
tp1380
a(S'space'
p1381
F180.73163986206055
tp1382
a(S'space'
p1383
F181.27332997322083
tp1384
a(S'space'
p1385
F181.75346779823303
tp1386
a(S'space'
p1387
F182.30536699295044
tp1388
a(S'space'
p1389
F182.8649139404297
tp1390
a(S'space'
p1391
F183.37724494934082
tp1392
a(S'space'
p1393
F183.83323502540588
tp1394
a(S'space'
p1395
F184.46494793891907
tp1396
a(S'space'
p1397
F185.02525997161865
tp1398
a(S'space'
p1399
F185.60131192207336
tp1400
a(S'space'
p1401
F186.12122988700867
tp1402
a(S'space'
p1403
F186.62528085708618
tp1404
assg611
(dp1405
g133
(lp1406
F366.99916982650757
aF367.6635868549347
aF368.2969868183136
aF368.9636528491974
aF369.6300950050354
aF370.26365089416504
aF370.93031883239746
aF371.59675693511963
aF372.2303159236908
aF372.89694380760193
aF373.5635359287262
aF374.1970729827881
aF374.8636100292206
aF375.5300648212433
aF376.1636018753052
aF376.8302628993988
aF377.4966928958893
aF378.1302628517151
aF378.7968919277191
aF379.463515996933
aF380.0970628261566
aF380.7637150287628
aF381.4300229549408
aF382.06354093551636
aF382.73022985458374
aF383.39667892456055
aF384.0302298069
aF384.6968939304352
aF385.36332988739014
aF385.99699783325195
aF386.6636838912964
aF387.3299868106842
aF387.96352791786194
aF388.6301758289337
aF389.2965998649597
aF389.93018889427185
aF390.59683299064636
aF391.2635807991028
aF391.89682388305664
aF392.56349301338196
aF393.2299380302429
aF393.8634638786316
aF394.53014302253723
aF395.19656801223755
aF395.83012890815735
aF396.4968008995056
asg135
(lp1407
(S'return'
p1408
F368.09717297554016
tp1409
a(S'return'
p1410
F368.11181902885437
tp1411
a(S'return'
p1412
F368.52003288269043
tp1413
a(S'return'
p1414
F369.1117968559265
tp1415
a(S'return'
p1416
F369.783793926239
tp1417
a(S'return'
p1418
F370.76809787750244
tp1419
a(S'return'
p1420
F371.24778485298157
tp1421
a(S'return'
p1422
F372.4319818019867
tp1423
a(S'return'
p1424
F374.911896944046
tp1425
a(S'return'
p1426
F376.6303939819336
tp1427
a(S'return'
p1428
F377.49585580825806
tp1429
a(S'return'
p1430
F378.5971508026123
tp1431
a(S'return'
p1432
F379.36946392059326
tp1433
a(S'return'
p1434
F380.56389594078064
tp1435
a(S'return'
p1436
F381.03997802734375
tp1437
a(S'return'
p1438
F382.0968289375305
tp1439
a(S'return'
p1440
F383.1118869781494
tp1441
a(S'return'
p1442
F383.83040595054626
tp1443
a(S'return'
p1444
F384.49715089797974
tp1445
a(S'return'
p1446
F385.14381194114685
tp1447
a(S'return'
p1448
F385.88769483566284
tp1449
a(S'return'
p1450
F386.91227889060974
tp1451
a(S'return'
p1452
F388.7199149131775
tp1453
a(S'return'
p1454
F389.2637708187103
tp1455
a(S'return'
p1456
F390.0239188671112
tp1457
a(S'return'
p1458
F390.75988602638245
tp1459
a(S'return'
p1460
F391.69698882102966
tp1461
a(S'return'
p1462
F392.36361479759216
tp1463
a(S'return'
p1464
F393.215754032135
tp1465
a(S'return'
p1466
F394.54678893089294
tp1467
a(S'return'
p1468
F395.1437289714813
tp1469
a(S'return'
p1470
F395.75961089134216
tp1471
asg197
(lp1472
(S'd'
p1473
F367.4721338748932
tp1474
a(S'a'
p1475
F368.09726190567017
tp1476
a(S'd'
p1477
F368.54683685302734
tp1478
a(S'a'
p1479
F369.07204389572144
tp1480
a(S'd'
p1481
F369.6563229560852
tp1482
a(S'a'
p1483
F370.2159118652344
tp1484
a(S'd'
p1485
F370.77577781677246
tp1486
a(S'a'
p1487
F371.231990814209
tp1488
a(S'd'
p1489
F372.0304379463196
tp1490
a(S'a'
p1491
F372.69718289375305
tp1492
a(S'a'
p1493
F373.22403502464294
tp1494
a(S'd'
p1495
F373.58033180236816
tp1496
a(S'a'
p1497
F374.0719699859619
tp1498
a(S'd'
p1499
F374.79204988479614
tp1500
a(S'a'
p1501
F375.43013882637024
tp1502
a(S'd'
p1503
F376.0239448547363
tp1504
a(S'a'
p1505
F376.7918529510498
tp1506
a(S'd'
p1507
F377.3279550075531
tp1508
a(S'a'
p1509
F377.93038296699524
tp1510
a(S'd'
p1511
F378.59705996513367
tp1512
a(S'a'
p1513
F378.9999690055847
tp1514
a(S'd'
p1515
F379.8971848487854
tp1516
a(S'a'
p1517
F382.59989190101624
tp1518
a(S'd'
p1519
F382.91190099716187
tp1520
a(S'a'
p1521
F383.83035683631897
tp1522
a(S'd'
p1523
F384.4970610141754
tp1524
a(S'a'
p1525
F384.91194891929626
tp1526
a(S'd'
p1527
F385.79712891578674
tp1528
a(S'a'
p1529
F386.46380591392517
tp1530
a(S'd'
p1531
F387.287850856781
tp1532
a(S'a'
p1533
F387.47177600860596
tp1534
a(S'd'
p1535
F387.94381189346313
tp1536
a(S'a'
p1537
F388.51983094215393
tp1538
a(S'd'
p1539
F389.19673681259155
tp1540
a(S'a'
p1541
F389.7678530216217
tp1542
a(S'd'
p1543
F390.567852973938
tp1544
a(S'a'
p1545
F391.16365790367126
tp1546
a(S'd'
p1547
F391.8957099914551
tp1548
a(S'a'
p1549
F392.4476578235626
tp1550
a(S'd'
p1551
F393.00788497924805
tp1552
a(S'a'
p1553
F393.6635868549347
tp1554
a(S'd'
p1555
F394.08784103393555
tp1556
a(S'd'
p1557
F394.88017082214355
tp1558
a(S'a'
p1559
F395.07172894477844
tp1560
a(S'd'
p1561
F395.7518060207367
tp1562
a(S'a'
p1563
F396.45582389831543
tp1564
asg301
(lp1565
F367.33028984069824
aF368.3134608268738
aF369.29675698280334
aF370.280268907547
aF371.2634029388428
aF372.2467529773712
aF373.230064868927
aF374.21339082717896
aF375.1967349052429
aF376.18005990982056
aF377.1633629798889
aF378.1467218399048
aF379.1300368309021
aF380.1135218143463
aF381.096715927124
aF382.08003282546997
aF383.06331992149353
aF384.0468499660492
aF385.03001594543457
aF386.01348900794983
aF386.99679493904114
aF387.98018193244934
aF388.96330189704895
aF389.9466209411621
aF390.9299759864807
aF391.91346502304077
aF392.8967478275299
aF393.8801338672638
aF394.86327385902405
aF395.8467118740082
asss.