(dp0
S'RH'
p1
(dp2
S'A'
p3
(dp4
S'S'
p5
(lp6
F283.5846450328827
aF284.1180820465088
aF284.6516239643097
aF285.18515396118164
aF285.7186450958252
aF286.2521810531616
aF286.78565311431885
aF287.3190190792084
aF287.8526990413666
aF288.386146068573
aF288.9195079803467
aF289.4529941082001
aF289.9866111278534
aF290.5200970172882
aF291.0536620616913
aF291.58714509010315
aF292.1205940246582
aF292.6540801525116
aF293.1875841617584
aF293.7210741043091
aF294.25458812713623
aF294.7880890369415
aF295.3217489719391
aF295.8551800251007
aF296.3885540962219
aF296.9222161769867
aF297.4555461406708
aF297.98908710479736
aF298.5225760936737
aF299.05619406700134
aF299.58955001831055
aF300.12303709983826
aF300.6565639972687
aF301.1901111602783
aF301.72367310523987
aF302.2571840286255
aF302.7905011177063
asS'M'
p7
(lp8
(S'left'
p9
F283.90715408325195
tp10
a(S'right'
p11
F284.54581904411316
tp12
a(S'right'
p13
F285.5020761489868
tp14
a(S'left'
p15
F286.03576707839966
tp16
a(S'left'
p17
F286.6021251678467
tp18
a(S'right'
p19
F287.10272097587585
tp20
a(S'left'
p21
F287.63658809661865
tp22
a(S'right'
p23
F288.16958713531494
tp24
a(S'left'
p25
F288.7032279968262
tp26
a(S'right'
p27
F288.9865300655365
tp28
a(S'left'
p29
F289.51412415504456
tp30
a(S'right'
p31
F290.3038980960846
tp32
a(S'left'
p33
F290.5777871608734
tp34
a(S'right'
p35
F290.98606514930725
tp36
a(S'left'
p37
F291.48176097869873
tp38
a(S'right'
p39
F291.93774008750916
tp40
a(S'left'
p41
F292.48974895477295
tp42
a(S'right'
p43
F292.97163009643555
tp44
a(S'left'
p45
F293.52975511550903
tp46
a(S'right'
p47
F294.12973403930664
tp48
a(S'left'
p49
F294.7057399749756
tp50
a(S'right'
p51
F295.2017271518707
tp52
a(S'left'
p53
F295.76975202560425
tp54
a(S'right'
p55
F296.2897210121155
tp56
a(S'left'
p57
F296.76969504356384
tp58
a(S'right'
p59
F297.26573514938354
tp60
a(S'left'
p61
F297.84173107147217
tp62
a(S'right'
p63
F298.3616931438446
tp64
a(S'left'
p65
F298.89772605895996
tp66
a(S'right'
p67
F299.5217080116272
tp68
a(S'left'
p69
F300.00968503952026
tp70
a(S'right'
p71
F300.48971009254456
tp72
a(S'left'
p73
F301.0497009754181
tp74
a(S'right'
p75
F301.6016790866852
tp76
a(S'left'
p77
F302.1696629524231
tp78
a(S'right'
p79
F302.68967294692993
tp80
a(S'left'
p81
F303.2256510257721
tp82
assS'DT'
p83
(dp84
S'AS'
p85
(lp86
F542.098582983017
aF542.7639081478119
aF543.397588968277
aF544.0644710063934
aF544.7311279773712
aF545.3648660182953
aF546.0318081378937
aF546.6983871459961
aF547.3320889472961
aF547.9990661144257
aF548.6656770706177
aF549.2993359565735
aF549.966304063797
aF550.6329159736633
aF551.2666440010071
aF551.9335329532623
aF552.600191116333
aF553.2339200973511
aF553.9008121490479
aF554.5673961639404
aF555.2011580467224
aF555.8680741786957
aF556.5349571704865
asS'TM'
p87
(lp88
(S'return'
p89
F543.1980330944061
tp90
a(S'return'
p91
F543.8649230003357
tp92
a(S'return'
p93
F544.7597060203552
tp94
a(S'return'
p95
F545.4077050685883
tp96
a(S'return'
p97
F546.6156959533691
tp98
a(S'return'
p99
F547.3836390972137
tp100
a(S'return'
p101
F548.0875861644745
tp102
a(S'return'
p103
F549.099935054779
tp104
a(S'return'
p105
F549.8076419830322
tp106
a(S'return'
p107
F550.5333371162415
tp108
a(S'return'
p109
F551.3196351528168
tp110
a(S'return'
p111
F552.1668980121613
tp112
a(S'return'
p113
F553.2956321239471
tp114
a(S'return'
p115
F554.3036460876465
tp116
a(S'return'
p117
F555.668487071991
tp118
a(S'return'
p119
F556.3355989456177
tp120
asS'AM'
p121
(lp122
(S'd'
p123
F542.7117099761963
tp124
a(S'a'
p125
F543.2397091388702
tp126
a(S'd'
p127
F543.6479530334473
tp128
a(S'a'
p129
F544.0396540164948
tp130
a(S'd'
p131
F544.3916380405426
tp132
a(S'a'
p133
F545.165244102478
tp134
a(S'd'
p135
F545.1836631298065
tp136
a(S'a'
p137
F545.8322160243988
tp138
a(S'd'
p139
F546.0485501289368
tp140
a(S'a'
p141
F546.7996339797974
tp142
a(S'd'
p143
F547.137011051178
tp144
a(S'a'
p145
F547.7995030879974
tp146
a(S'd'
p147
F547.8956799507141
tp148
a(S'a'
p149
F548.5836591720581
tp150
a(S'd'
p151
F549.099760055542
tp152
a(S'd'
p153
F550.1676549911499
tp154
a(S'a'
p155
F550.4156069755554
tp156
a(S'a'
p157
F551.0671350955963
tp158
a(S'd'
p159
F551.1596291065216
tp160
a(S'a'
p161
F551.7339370250702
tp162
a(S'd'
p163
F551.9596400260925
tp164
a(S'a'
p165
F552.6876239776611
tp166
a(S'd'
p167
F553.0344829559326
tp168
a(S'a'
p169
F553.7596340179443
tp170
a(S'd'
p171
F553.9756109714508
tp172
a(S'a'
p173
F554.7596189975739
tp174
a(S'd'
p175
F555.0016071796417
tp176
a(S'a'
p177
F555.7435910701752
tp178
a(S'd'
p179
F555.9995510578156
tp180
asS'TS'
p181
(lp182
F542.4306130409241
aF543.4141399860382
aF544.3976600170135
aF545.3814549446106
aF546.3649501800537
aF547.3486931324005
aF548.3322479724884
aF549.3159680366516
aF550.2995250225067
aF551.2831740379333
aF552.2667751312256
aF553.2504940032959
aF554.2340340614319
aF555.2177820205688
aF556.2013521194458
assS'DA'
p183
(dp184
g85
(lp185
F613.8032891750336
aF614.4706280231476
aF615.1029510498047
aF615.7697420120239
aF616.4365141391754
aF617.0702321529388
aF617.7370419502258
aF618.403792142868
aF619.0373890399933
aF619.704313993454
aF620.3710961341858
aF621.0046019554138
aF621.6714751720428
aF622.3383271694183
aF622.9719951152802
aF623.638699054718
aF624.305426120758
aF624.9391770362854
aF625.6060261726379
aF626.272735118866
aF626.9065451622009
aF627.5733151435852
aF628.2401440143585
asg87
(lp186
(S'return'
p187
F614.9034080505371
tp188
a(S'return'
p189
F615.5703010559082
tp190
a(S'return'
p191
F616.271106004715
tp192
a(S'return'
p193
F617.2951090335846
tp194
a(S'return'
p195
F618.1270840167999
tp196
a(S'return'
p197
F619.0707521438599
tp198
a(S'return'
p199
F619.9830870628357
tp200
a(S'return'
p201
F621.1430871486664
tp202
a(S'return'
p203
F621.9590411186218
tp204
a(S'return'
p205
F622.9030740261078
tp206
a(S'return'
p207
F623.9590411186218
tp208
a(S'return'
p209
F625.406641960144
tp210
a(S'return'
p211
F626.3509621620178
tp212
a(S'return'
p213
F627.1109790802002
tp214
a(S'return'
p215
F628.1029460430145
tp216
asg121
(lp217
(S'd'
p218
F614.3707661628723
tp219
a(S'a'
p220
F614.9037351608276
tp221
a(S'd'
p222
F615.2231299877167
tp223
a(S'a'
p224
F615.8151161670685
tp225
a(S'd'
p226
F616.103364944458
tp227
a(S'a'
p228
F616.6471030712128
tp229
a(S'd'
p230
F616.8953170776367
tp231
a(S'a'
p232
F617.639121055603
tp233
a(S'd'
p234
F617.8871250152588
tp235
a(S'a'
p236
F618.8377239704132
tp237
a(S'd'
p238
F618.8404259681702
tp239
a(S'a'
p240
F619.5047769546509
tp241
a(S'd'
p242
F619.7030310630798
tp243
a(S'a'
p244
F620.8050200939178
tp245
a(S'd'
p246
F620.9110929965973
tp247
a(S'a'
p248
F621.4720449447632
tp249
a(S'd'
p250
F621.7110600471497
tp251
a(S'a'
p252
F622.5030920505524
tp253
a(S'd'
p254
F622.7722020149231
tp255
a(S'a'
p256
F623.4391920566559
tp257
a(S'd'
p258
F623.6555531024933
tp259
a(S'a'
p260
F624.7396111488342
tp261
a(S'd'
p262
F625.4064660072327
tp263
a(S'a'
p264
F626.0310289859772
tp265
a(S'd'
p266
F626.8950350284576
tp267
a(S'a'
p268
F627.8230450153351
tp269
a(S'd'
p270
F628.1749920845032
tp271
asg181
(lp272
F614.1356921195984
aF615.1196050643921
aF616.1029479503632
aF617.086807012558
aF618.0702080726624
aF619.0539350509644
aF620.0375921726227
aF621.0212590694427
aF622.0047640800476
aF622.9884011745453
aF623.97216796875
aF624.9558050632477
aF625.9392940998077
aF626.923150062561
aF627.9065239429474
assS'T'
p273
(dp274
g5
(lp275
F179.43612003326416
aF179.9696650505066
aF180.50315713882446
aF181.03665709495544
aF181.57007503509521
aF182.10359716415405
aF182.63713908195496
aF183.17064499855042
aF183.70392203330994
aF184.23762798309326
aF184.7711100578308
aF185.30462217330933
aF185.83811712265015
aF186.3716630935669
aF186.9051170349121
aF187.43858695030212
aF187.97210812568665
aF188.50554299354553
aF189.0390601158142
aF189.57274103164673
aF190.10607409477234
aF190.63963794708252
aF191.17312502861023
aF191.7064130306244
aF192.24011611938477
aF192.77339911460876
aF193.30705404281616
aF193.84055995941162
aF194.374037027359
aF194.90752816200256
aF195.44104313850403
aF195.9745171070099
aF196.50816106796265
aF197.04148316383362
aF197.57506203651428
aF198.1084749698639
aF198.64201402664185
asg7
(lp276
(S'return'
p277
F179.7787561416626
tp278
a(S'return'
p279
F180.3787169456482
tp280
a(S'return'
p281
F180.82047700881958
tp282
a(S'return'
p283
F181.3540370464325
tp284
a(S'return'
p285
F181.88757395744324
tp286
a(S'return'
p287
F182.42109298706055
tp288
a(S'return'
p289
F182.95457005500793
tp290
a(S'return'
p291
F184.0215711593628
tp292
a(S'return'
p293
F184.33065104484558
tp294
a(S'return'
p295
F184.75464010238647
tp296
a(S'return'
p297
F185.3626470565796
tp298
a(S'return'
p299
F186.1555700302124
tp300
a(S'return'
p301
F186.6891050338745
tp302
a(S'return'
p303
F187.222491979599
tp304
a(S'return'
p305
F187.75604510307312
tp306
a(S'return'
p307
F188.42662000656128
tp308
a(S'return'
p309
F189.13061714172363
tp310
a(S'return'
p311
F189.8900899887085
tp312
a(S'return'
p313
F190.42347717285156
tp314
a(S'return'
p315
F190.95684599876404
tp316
a(S'return'
p317
F191.49066495895386
tp318
a(S'return'
p319
F192.13860607147217
tp320
a(S'return'
p321
F192.77355003356934
tp322
a(S'return'
p323
F193.3625841140747
tp324
a(S'return'
p325
F194.15814900398254
tp326
a(S'return'
p327
F194.6913001537323
tp328
a(S'return'
p329
F195.22500896453857
tp330
a(S'return'
p331
F195.77857613563538
tp332
a(S'return'
p333
F196.34657907485962
tp334
a(S'return'
p335
F196.87485098838806
tp336
a(S'return'
p337
F197.41054010391235
tp338
a(S'return'
p339
F197.9545600414276
tp340
a(S'return'
p341
F198.53054404258728
tp342
a(S'return'
p343
F199.1385281085968
tp344
assS'D'
p345
(dp346
g85
(lp347
F455.2555830478668
aF455.920695066452
aF456.5543360710144
aF457.22121596336365
aF457.8879520893097
aF458.52160906791687
aF459.18850111961365
aF459.85533714294434
aF460.48893308639526
aF461.1558451652527
aF461.82259917259216
aF462.45627212524414
aF463.1230721473694
aF463.7897400856018
aF464.4234621524811
aF465.0903160572052
aF465.7569479942322
aF466.390860080719
aF467.05761098861694
aF467.724249124527
aF468.3580241203308
aF469.024875164032
aF469.6915090084076
asg87
(lp348
(S'return'
p349
F456.3549110889435
tp350
a(S'return'
p351
F457.432373046875
tp352
a(S'return'
p353
F458.3220331668854
tp354
a(S'return'
p355
F459.22434401512146
tp356
a(S'return'
p357
F460.0083260536194
tp358
a(S'return'
p359
F462.496374130249
tp360
a(S'return'
p361
F463.1123330593109
tp362
a(S'return'
p363
F463.84833908081055
tp364
a(S'return'
p365
F464.89047718048096
tp366
a(S'return'
p367
F465.6162841320038
tp368
a(S'return'
p369
F466.4963240623474
tp370
a(S'return'
p371
F467.10433197021484
tp372
a(S'return'
p373
F468.424250125885
tp374
asg121
(lp375
(S'd'
p376
F455.7684180736542
tp377
a(S'a'
p378
F456.3547351360321
tp379
a(S'a'
p380
F456.472412109375
tp381
a(S'd'
p382
F456.63239908218384
tp383
a(S'a'
p384
F457.1124050617218
tp385
a(S'd'
p386
F457.68040895462036
tp387
a(S'd'
p388
F458.56840801239014
tp389
a(S'a'
p390
F459.00168204307556
tp391
a(S'a'
p392
F459.59237408638
tp393
a(S'd'
p394
F459.87234115600586
tp395
a(S'a'
p396
F461.2163600921631
tp397
a(S'd'
p398
F461.592365026474
tp399
a(S'a'
p400
F462.6322531700134
tp401
a(S'd'
p402
F462.9233310222626
tp403
a(S'a'
p404
F463.369038105011
tp405
a(S'd'
p406
F463.6563501358032
tp407
a(S'a'
p408
F464.2239019870758
tp409
a(S'd'
p410
F464.472403049469
tp411
a(S'a'
p412
F465.3043351173401
tp413
a(S'd'
p414
F465.81633400917053
tp415
a(S'a'
p416
F466.3123300075531
tp417
a(S'd'
p418
F466.8582899570465
tp419
a(S'a'
p420
F467.37633204460144
tp421
a(S'd'
p422
F467.76831912994385
tp423
a(S'a'
p424
F468.2083411216736
tp425
a(S'a'
p426
F468.86432909965515
tp427
a(S'd'
p428
F469.0723180770874
tp429
asg181
(lp430
F455.58731603622437
aF456.5711100101471
aF457.5544819831848
aF458.538369178772
aF459.5217230319977
aF460.5054759979248
aF461.4891800880432
aF462.47288608551025
aF463.45628809928894
aF464.4400050640106
aF465.42356514930725
aF466.40728211402893
aF467.3908021450043
aF468.3745310306549
aF469.35801005363464
asssS'LH'
p431
(dp432
g3
(dp433
g5
(lp434
F338.1512520313263
aF338.6849219799042
aF339.2183129787445
aF339.7518210411072
aF340.28530716896057
aF340.81879806518555
aF341.3523180484772
aF341.88580894470215
aF342.4192759990692
aF342.95281505584717
aF343.4863030910492
aF344.01979994773865
aF344.5533220767975
aF345.08674812316895
aF345.62038397789
aF346.1538619995117
aF346.68722915649414
aF347.2207679748535
aF347.75441098213196
aF348.28772711753845
aF348.8212630748749
aF349.3547520637512
aF349.88821506500244
aF350.4218771457672
aF350.9552869796753
aF351.48874711990356
aF352.0222420692444
aF352.55587005615234
aF353.0893609523773
aF353.6229031085968
aF354.1562340259552
aF354.68982100486755
aF355.22319507598877
aF355.7567250728607
aF356.29022216796875
aF356.823842048645
aF357.35722398757935
asg7
(lp435
(S'd'
p436
F338.6013820171356
tp437
a(S'a'
p438
F339.00292110443115
tp439
a(S'd'
p440
F339.5613751411438
tp441
a(S'd'
p442
F341.18536710739136
tp443
a(S'a'
p444
F341.7693510055542
tp445
a(S'd'
p446
F342.3613369464874
tp447
a(S'a'
p448
F342.8973581790924
tp449
a(S'd'
p450
F343.4973599910736
tp451
a(S'a'
p452
F344.0493321418762
tp453
a(S'd'
p454
F344.62531995773315
tp455
a(S'a'
p456
F345.0980279445648
tp457
a(S'd'
p458
F345.9377181529999
tp459
a(S'a'
p460
F346.16938495635986
tp461
a(S'd'
p462
F346.71332001686096
tp463
a(S'a'
p464
F347.17732405662537
tp465
a(S'd'
p466
F347.63329005241394
tp467
a(S'a'
p468
F348.12132596969604
tp469
a(S'd'
p470
F348.64132499694824
tp471
a(S'a'
p472
F349.22531294822693
tp473
a(S'd'
p474
F349.6892900466919
tp475
a(S'a'
p476
F350.2056269645691
tp477
a(S'd'
p478
F350.7393591403961
tp479
a(S'a'
p480
F351.27265906333923
tp481
a(S'd'
p482
F351.80620098114014
tp483
a(S'a'
p484
F352.3396849632263
tp485
a(S'd'
p486
F352.8730311393738
tp487
a(S'a'
p488
F353.41727805137634
tp489
a(S'd'
p490
F353.9401659965515
tp491
a(S'a'
p492
F354.4737911224365
tp493
a(S'd'
p494
F355.1452851295471
tp495
a(S'a'
p496
F355.540589094162
tp497
a(S'd'
p498
F356.0744831562042
tp499
a(S'a'
p500
F356.6075849533081
tp501
a(S'd'
p502
F357.1411499977112
tp503
a(S'a'
p504
F357.76124000549316
tp505
assg83
(dp506
g85
(lp507
sg87
(lp508
sg121
(lp509
sg181
(lp510
ssg183
(dp511
g85
(lp512
sg87
(lp513
sg121
(lp514
sg181
(lp515
ssg273
(dp516
g5
(lp517
F227.25075697898865
aF227.7842719554901
aF228.31775617599487
aF228.85126495361328
aF229.38489508628845
aF229.9182469844818
aF230.45187306404114
aF230.9852499961853
aF231.51878213882446
aF232.05220794677734
aF232.58580899238586
aF233.11924600601196
aF233.6528091430664
aF234.1863420009613
aF234.71972608566284
aF235.25339603424072
aF235.786719083786
aF236.32018613815308
aF236.8537061214447
aF237.38721203804016
aF237.9208710193634
aF238.45407915115356
aF238.98770594596863
aF239.52143001556396
aF240.05471396446228
aF240.58816504478455
aF241.1216640472412
aF241.65517497062683
aF242.1886510848999
aF242.72232103347778
aF243.25566506385803
aF243.78919506072998
aF244.32287216186523
aF244.85612607002258
aF245.38964200019836
aF245.92329096794128
aF246.45677614212036
asg7
(lp518
(S'space'
p519
F227.56822204589844
tp520
a(S'space'
p521
F228.10152101516724
tp522
a(S'space'
p523
F228.3179030418396
tp524
a(S'space'
p525
F228.8102741241455
tp526
a(S'space'
p527
F229.3142969608307
tp528
a(S'space'
p529
F229.8502631187439
tp530
a(S'space'
p531
F230.4262571334839
tp532
a(S'space'
p533
F231.0022749900818
tp534
a(S'space'
p535
F231.56226015090942
tp536
a(S'space'
p537
F232.1062490940094
tp538
a(S'space'
p539
F232.90335607528687
tp540
a(S'space'
p541
F233.43677401542664
tp542
a(S'space'
p543
F233.97018218040466
tp544
a(S'space'
p545
F234.50343894958496
tp546
a(S'space'
p547
F235.03716397285461
tp548
a(S'space'
p549
F235.33823704719543
tp550
a(S'space'
p551
F235.85022616386414
tp552
a(S'space'
p553
F236.3306839466095
tp554
a(S'space'
p555
F236.8745379447937
tp556
a(S'space'
p557
F237.3874101638794
tp558
a(S'space'
p559
F237.9210171699524
tp560
a(S'space'
p561
F238.3942141532898
tp562
a(S'space'
p563
F238.8822250366211
tp564
a(S'space'
p565
F239.38620901107788
tp566
a(S'space'
p567
F239.86618304252625
tp568
a(S'space'
p569
F240.40220499038696
tp570
a(S'space'
p571
F241.0341989994049
tp572
a(S'space'
p573
F241.5541729927063
tp574
a(S'space'
p575
F242.10617399215698
tp576
a(S'space'
p577
F242.64216208457947
tp578
a(S'space'
p579
F243.20217609405518
tp580
a(S'space'
p581
F243.78956508636475
tp582
a(S'space'
p583
F244.32313799858093
tp584
a(S'space'
p585
F244.85893416404724
tp586
a(S'space'
p587
F245.45014715194702
tp588
a(S'space'
p589
F246.01014614105225
tp590
a(S'space'
p591
F246.77437210083008
tp592
assg345
(dp593
g85
(lp594
sg87
(lp595
sg121
(lp596
sg181
(lp597
sss.