(dp0
S'RH'
p1
(dp2
S'A'
p3
(dp4
S'S'
p5
(lp6
F135.23942112922668
aF135.77291202545166
aF136.30620098114014
aF136.83965611457825
aF137.37276101112366
aF137.90626001358032
aF138.4395730495453
aF138.97290301322937
aF139.50622820854187
aF140.0395541191101
aF140.57290720939636
aF141.1062560081482
aF141.6396381855011
aF142.17285108566284
aF142.70623898506165
aF143.23953104019165
aF143.7728362083435
aF144.30605101585388
aF144.83952808380127
aF145.3726851940155
aF145.90619206428528
aF146.43951511383057
aF146.97291612625122
aF147.5061640739441
aF148.03949904441833
aF148.57285809516907
aF149.10616397857666
aF149.6395812034607
aF150.17278909683228
aF150.7061619758606
aF151.23945498466492
aF151.77284502983093
aF152.3059802055359
aF152.8394901752472
aF153.37266898155212
aF153.90612816810608
aF154.43943619728088
aF154.9728021621704
aF155.50611019134521
aF156.0394561290741
aF156.57283997535706
aF157.1061201095581
aF157.63943719863892
aF158.17275309562683
aF158.70610117912292
aF159.23944211006165
aF159.77277302742004
aF160.30592107772827
aF160.83944606781006
aF161.37256717681885
aF161.90609097480774
aF162.4393801689148
aF162.97275519371033
aF163.50611805915833
aF164.03938817977905
aF164.5727241039276
aF165.1060709953308
aF165.63946199417114
aF166.17270517349243
aF166.70606899261475
asS'M'
p7
(lp8
(S'right'
p9
F135.55660915374756
tp10
a(S'left'
p11
F136.09511804580688
tp12
a(S'right'
p13
F136.62327098846436
tp14
a(S'left'
p15
F137.15667605400085
tp16
a(S'right'
p17
F137.6897931098938
tp18
a(S'left'
p19
F138.22327399253845
tp20
a(S'right'
p21
F138.7566831111908
tp22
a(S'left'
p23
F139.28993606567383
tp24
a(S'right'
p25
F139.82328820228577
tp26
a(S'left'
p27
F140.35666298866272
tp28
a(S'right'
p29
F140.88992619514465
tp30
a(S'left'
p31
F141.423278093338
tp32
a(S'right'
p33
F141.95663118362427
tp34
a(S'left'
p35
F142.48997807502747
tp36
a(S'right'
p37
F142.79873609542847
tp38
a(S'left'
p39
F143.26266503334045
tp40
a(S'right'
p41
F143.83064818382263
tp42
a(S'left'
p43
F144.33464908599854
tp44
a(S'right'
p45
F144.85471606254578
tp46
a(S'left'
p47
F145.3727831840515
tp48
a(S'right'
p49
F145.862624168396
tp50
a(S'left'
p51
F146.4396619796753
tp52
a(S'right'
p53
F146.94267797470093
tp54
a(S'left'
p55
F147.43865418434143
tp56
a(S'right'
p57
F148.06263899803162
tp58
a(S'left'
p59
F148.57304120063782
tp60
a(S'right'
p61
F149.1062650680542
tp62
a(S'left'
p63
F149.6396791934967
tp64
a(S'right'
p65
F150.1826000213623
tp66
a(S'left'
p67
F150.70626997947693
tp68
a(S'right'
p69
F151.30260610580444
tp70
a(S'left'
p71
F151.81458115577698
tp72
a(S'right'
p73
F152.28654408454895
tp74
a(S'left'
p75
F152.84664702415466
tp76
a(S'right'
p77
F153.3747730255127
tp78
a(S'left'
p79
F153.94257402420044
tp80
a(S'right'
p81
F154.4865620136261
tp82
a(S'left'
p83
F155.04662013053894
tp84
a(S'right'
p85
F155.56658005714417
tp86
a(S'left'
p87
F156.09456205368042
tp88
a(S'right'
p89
F156.60662412643433
tp90
a(S'left'
p91
F157.12656211853027
tp92
a(S'right'
p93
F157.62250208854675
tp94
a(S'left'
p95
F158.1505081653595
tp96
a(S'right'
p97
F158.6625862121582
tp98
a(S'left'
p99
F159.19850516319275
tp100
a(S'right'
p101
F159.70248198509216
tp102
a(S'left'
p103
F160.24650597572327
tp104
a(S'right'
p105
F160.82254815101624
tp106
a(S'left'
p107
F161.32648420333862
tp108
a(S'right'
p109
F161.8304741382599
tp110
a(S'left'
p111
F162.35043811798096
tp112
a(S'right'
p113
F162.87056803703308
tp114
a(S'left'
p115
F163.43843603134155
tp116
a(S'right'
p117
F163.97446703910828
tp118
a(S'left'
p119
F164.55045914649963
tp120
a(S'right'
p121
F165.1265480518341
tp122
a(S'left'
p123
F165.66250801086426
tp124
a(S'right'
p125
F166.20649409294128
tp126
a(S'left'
p127
F166.78255200386047
tp128
assS'DT'
p129
(dp130
S'AS'
p131
(lp132
F349.49041199684143
aF350.1546821594238
aF350.788241147995
aF351.4548890590668
aF352.12133598327637
aF352.7548921108246
aF353.42154908180237
aF354.088014125824
aF354.7215280532837
aF355.38836002349854
aF356.05477714538574
aF356.6882040500641
aF357.3548560142517
aF358.02127718925476
aF358.65485405921936
aF359.3214821815491
aF359.98796010017395
aF360.62147402763367
aF361.2881860733032
aF361.9548020362854
aF362.5882930755615
aF363.2547781467438
aF363.92124915122986
aF364.55479407310486
aF365.221449136734
aF365.88791608810425
aF366.5214490890503
aF367.1881191730499
aF367.8546931743622
aF368.488254070282
aF369.1549310684204
aF369.8212010860443
aF370.45474219322205
aF371.1214020252228
aF371.78786420822144
aF372.42139315605164
aF373.08808398246765
aF373.75448203086853
aF374.3880760669708
aF375.05472207069397
aF375.72116112709045
aF376.35473704338074
aF377.02134919166565
aF377.6878740787506
aF378.3213560581207
aF378.988037109375
asS'TM'
p133
(lp134
(S'space'
p135
F342.0615291595459
tp136
a(S'space'
p137
F350.07740902900696
tp138
a(S'space'
p139
F351.03820610046387
tp140
a(S'space'
p141
F351.99726009368896
tp142
a(S'space'
p143
F353.22174620628357
tp144
a(S'space'
p145
F353.8452000617981
tp146
a(S'space'
p147
F354.52169013023376
tp148
a(S'space'
p149
F355.74397802352905
tp150
a(S'space'
p151
F356.8852620124817
tp152
a(S'space'
p153
F357.9335660934448
tp154
a(S'space'
p155
F359.1216630935669
tp156
a(S'space'
p157
F359.86924719810486
tp158
a(S'space'
p159
F361.0883491039276
tp160
a(S'space'
p161
F361.93327498435974
tp162
a(S'space'
p163
F362.8380160331726
tp164
a(S'space'
p165
F363.75723910331726
tp166
a(S'space'
p167
F364.68511509895325
tp168
a(S'space'
p169
F365.6132001876831
tp170
a(S'space'
p171
F366.565279006958
tp172
a(S'space'
p173
F367.5811321735382
tp174
a(S'space'
p175
F368.9550561904907
tp176
a(S'space'
p177
F369.77304315567017
tp178
a(S'space'
p179
F370.7045991420746
tp180
a(S'space'
p181
F371.6879541873932
tp182
a(S'space'
p183
F372.88831400871277
tp184
a(S'space'
p185
F373.733017206192
tp186
a(S'space'
p187
F374.8549611568451
tp188
a(S'space'
p189
F375.6212890148163
tp190
a(S'space'
p191
F376.8215970993042
tp192
a(S'space'
p193
F377.53284215927124
tp194
a(S'space'
p195
F378.44512605667114
tp196
asS'AM'
p197
(lp198
(S'left'
p199
F350.58840918540955
tp200
a(S'right'
p201
F351.4372761249542
tp202
a(S'left'
p203
F352.5550630092621
tp204
a(S'right'
p205
F352.7882900238037
tp206
a(S'left'
p207
F353.4932670593262
tp208
a(S'right'
p209
F354.03718304634094
tp210
a(S'left'
p211
F355.9655511379242
tp212
a(S'right'
p213
F357.1654851436615
tp214
a(S'left'
p215
F357.4932451248169
tp216
a(S'left'
p217
F359.12175011634827
tp218
a(S'right'
p219
F359.2531089782715
tp220
a(S'left'
p221
F360.5492150783539
tp222
a(S'right'
p223
F360.69315814971924
tp224
a(S'left'
p225
F362.46120500564575
tp226
a(S'right'
p227
F362.6215350627899
tp228
a(S'left'
p229
F363.99713802337646
tp230
a(S'right'
p231
F364.40512800216675
tp232
a(S'left'
p233
F365.3012251853943
tp234
a(S'right'
p235
F366.32161116600037
tp236
a(S'left'
p237
F367.0371789932251
tp238
a(S'right'
p239
F367.24516201019287
tp240
a(S'left'
p241
F368.3091650009155
tp242
a(S'right'
p243
F368.47691106796265
tp244
a(S'left'
p245
F369.31720519065857
tp246
a(S'right'
p247
F369.5049560070038
tp248
a(S'left'
p249
F370.37309098243713
tp250
a(S'left'
p251
F372.54116201400757
tp252
a(S'right'
p253
F372.6288871765137
tp254
a(S'left'
p255
F373.2931749820709
tp256
a(S'right'
p257
F373.46103501319885
tp258
a(S'left'
p259
F374.4851830005646
tp260
a(S'right'
p261
F374.58886098861694
tp262
a(S'right'
p263
F376.2611241340637
tp264
a(S'left'
p265
F376.54903411865234
tp266
a(S'right'
p267
F377.333163022995
tp268
a(S'right'
p269
F377.4210021495819
tp270
asS'TS'
p271
(lp272
F349.8215801715851
aF350.80468702316284
aF351.78799510002136
aF352.77150201797485
aF353.7546441555023
aF354.73801612854004
aF355.72129106521606
aF356.7046492099762
aF357.6879379749298
aF358.6712920665741
aF359.6545810699463
aF360.6379351615906
aF361.6212251186371
aF362.6047360897064
aF363.5879271030426
aF364.5712511539459
aF365.5545620918274
aF366.53807616233826
aF367.5212390422821
aF368.5047130584717
aF369.487900018692
aF370.47137117385864
aF371.4545531272888
aF372.4381501674652
aF373.42119812965393
aF374.4046440124512
aF375.38800501823425
aF376.37134408950806
aF377.35449504852295
aF378.33799505233765
assS'DA'
p273
(dp274
g131
(lp275
F455.42287015914917
aF456.0872960090637
aF456.7209720611572
aF457.387638092041
aF458.0539450645447
aF458.68749713897705
aF459.35415506362915
aF460.0205821990967
aF460.6541609764099
aF461.32079315185547
aF461.98725509643555
aF462.6207799911499
aF463.28757905960083
aF463.9540500640869
aF464.58743715286255
aF465.25411915779114
aF465.9205710887909
aF466.5541160106659
aF467.2207272052765
aF467.8871600627899
aF468.5207300186157
aF469.187402009964
aF469.8541450500488
aF470.4875371456146
aF471.1540741920471
aF471.82051610946655
aF472.45408821105957
aF473.1207220554352
aF473.7871642112732
aF474.4206759929657
aF475.0873820781708
aF475.7538139820099
aF476.3875060081482
aF477.0542461872101
aF477.7204601764679
aF478.35403418540955
aF479.0206871032715
aF479.6871039867401
aF480.32068610191345
aF480.9873330593109
aF481.6537621021271
aF482.2873411178589
aF482.9540100097656
aF483.62042117118835
aF484.2539939880371
aF484.92063903808594
asg133
(lp276
(S'space'
p277
F456.54032802581787
tp278
a(S'space'
p279
F458.4876341819763
tp280
a(S'space'
p281
F459.6285741329193
tp282
a(S'space'
p283
F460.4542841911316
tp284
a(S'space'
p285
F461.7004370689392
tp286
a(S'space'
p287
F463.08774614334106
tp288
a(S'space'
p289
F464.38760209083557
tp290
a(S'space'
p291
F465.7884180545807
tp292
a(S'space'
p293
F467.09236216545105
tp294
a(S'space'
p295
F468.39635610580444
tp296
a(S'space'
p297
F469.7003800868988
tp298
a(S'space'
p299
F471.1765480041504
tp300
a(S'space'
p301
F472.4363420009613
tp302
a(S'space'
p303
F473.68725514411926
tp304
a(S'space'
p305
F474.95631217956543
tp306
a(S'space'
p307
F476.1876599788666
tp308
a(S'space'
p309
F477.5723559856415
tp310
a(S'space'
p311
F478.84429121017456
tp312
a(S'space'
p313
F480.1208531856537
tp314
a(S'space'
p315
F481.29226303100586
tp316
a(S'space'
p317
F482.7541751861572
tp318
a(S'space'
p319
F483.5002791881561
tp320
a(S'space'
p321
F484.2121350765228
tp322
a(S'space'
p323
F484.80413699150085
tp324
asg197
(lp325
(S'right'
p326
F455.7166380882263
tp327
a(S'left'
p328
F456.5211441516876
tp329
a(S'right'
p330
F457.1877670288086
tp331
a(S'left'
p332
F457.3083350658417
tp333
a(S'right'
p334
F458.6363260746002
tp335
a(S'left'
p336
F458.75650906562805
tp337
a(S'right'
p338
F459.8764081001282
tp339
a(S'left'
p340
F459.988440990448
tp341
a(S'right'
p342
F461.12096405029297
tp343
a(S'left'
p344
F461.57253098487854
tp345
a(S'right'
p346
F462.1885051727295
tp347
a(S'left'
p348
F462.82850217819214
tp349
a(S'right'
p350
F463.59653210639954
tp351
a(S'left'
p352
F464.0365262031555
tp353
a(S'right'
p354
F465.0542531013489
tp355
a(S'left'
p356
F465.4204671382904
tp357
a(S'right'
p358
F466.3542380332947
tp359
a(S'left'
p360
F466.7804641723633
tp361
a(S'right'
p362
F467.54049015045166
tp363
a(S'left'
p364
F468.32085704803467
tp365
a(S'right'
p366
F468.9875371456146
tp367
a(S'left'
p368
F469.37242007255554
tp369
a(S'right'
p370
F470.28766918182373
tp371
a(S'left'
p372
F470.6204559803009
tp373
a(S'right'
p374
F471.57243514060974
tp375
a(S'left'
p376
F471.96436405181885
tp377
a(S'right'
p378
F472.92091512680054
tp379
a(S'left'
p380
F473.2683970928192
tp381
a(S'right'
p382
F474.220801115036
tp383
a(S'left'
p384
F474.4923610687256
tp385
a(S'right'
p386
F475.2843050956726
tp387
a(S'left'
p388
F475.77057814598083
tp389
a(S'right'
p390
F476.8543601036072
tp391
a(S'left'
p392
F477.0706970691681
tp393
a(S'right'
p394
F478.1541950702667
tp395
a(S'left'
p396
F478.41232800483704
tp397
a(S'right'
p398
F479.2538809776306
tp399
a(S'left'
p400
F479.788419008255
tp401
a(S'right'
p402
F480.5003800392151
tp403
a(S'left'
p404
F481.0040521621704
tp405
a(S'right'
p406
F481.85237312316895
tp407
a(S'left'
p408
F482.34830617904663
tp409
a(S'right'
p410
F483.1323311328888
tp411
a(S'left'
p412
F484.0541191101074
tp413
a(S'right'
p414
F484.72081112861633
tp415
asg271
(lp416
F455.75399899482727
aF456.73745799064636
aF457.7205970287323
aF458.70393109321594
aF459.68732810020447
aF460.67078614234924
aF461.65391206741333
aF462.63723611831665
aF463.6205630302429
aF464.60405802726746
aF465.58720207214355
aF466.5705690383911
aF467.553848028183
aF468.5372121334076
aF469.52067518234253
aF470.50404119491577
aF471.48717212677
aF472.47053718566895
aF473.4538450241089
aF474.4373571872711
aF475.4204730987549
aF476.40400099754333
aF477.3872821331024
aF478.3706421852112
aF479.35380721092224
aF480.33726501464844
aF481.32048416137695
aF482.30394315719604
aF483.28725719451904
aF484.2705810070038
assS'T'
p417
(dp418
g5
(lp419
F37.42365097999573
aF37.95692205429077
aF38.490100145339966
aF39.023640155792236
aF39.55673003196716
aF40.090219020843506
aF40.623579025268555
aF41.15689516067505
aF41.69024419784546
aF42.22358417510986
aF42.75690507888794
aF43.29023718833923
aF43.823575019836426
aF44.356855154037476
aF44.89022207260132
aF45.423542976379395
aF45.95685601234436
aF46.49005103111267
aF47.0235869884491
aF47.55667519569397
aF48.09022498130798
aF48.62354111671448
aF49.15681219100952
aF49.69018816947937
aF50.22349500656128
aF50.75685501098633
aF51.29014205932617
aF51.823562145233154
aF52.35684108734131
aF52.890127182006836
aF53.42345905303955
aF53.95682621002197
aF54.489973068237305
aF55.02346611022949
aF55.55662202835083
aF56.0901300907135
aF56.62328219413757
aF57.15681219100952
aF57.69017720222473
aF58.22362399101257
aF58.756744146347046
aF59.29016304016113
aF59.82341718673706
aF60.35662508010864
aF60.890084981918335
aF61.42344403266907
aF61.95677614212036
aF62.48995614051819
aF63.02341413497925
aF63.556766986846924
aF64.09009909629822
aF64.62326717376709
aF65.15676307678223
aF65.69003319740295
aF66.22337603569031
aF66.75671410560608
aF67.29007506370544
aF67.8233711719513
aF68.35671615600586
aF68.89006519317627
asg7
(lp420
(S'return'
p421
F37.74071407318115
tp422
a(S'return'
p423
F38.27397418022156
tp424
a(S'return'
p425
F38.80712699890137
tp426
a(S'return'
p427
F39.340665102005005
tp428
a(S'return'
p429
F39.8737850189209
tp430
a(S'return'
p431
F40.40731501579285
tp432
a(S'return'
p433
F40.575371980667114
tp434
a(S'return'
p435
F40.67928218841553
tp436
a(S'return'
p437
F41.19932317733765
tp438
a(S'return'
p439
F41.7193341255188
tp440
a(S'return'
p441
F42.26339602470398
tp442
a(S'return'
p443
F42.79133701324463
tp444
a(S'return'
p445
F43.31135106086731
tp446
a(S'return'
p447
F43.82367706298828
tp448
a(S'return'
p449
F44.383385181427
tp450
a(S'return'
p451
F44.90369200706482
tp452
a(S'return'
p453
F45.40733599662781
tp454
a(S'return'
p455
F45.991332054138184
tp456
a(S'return'
p457
F46.535380125045776
tp458
a(S'return'
p459
F47.079341173172
tp460
a(S'return'
p461
F47.57531499862671
tp462
a(S'return'
p463
F48.12731313705444
tp464
a(S'return'
p465
F48.68739914894104
tp466
a(S'return'
p467
F49.473788022994995
tp468
a(S'return'
p469
F50.00715398788452
tp470
a(S'return'
p471
F50.540632009506226
tp472
a(S'return'
p473
F51.073753118515015
tp474
a(S'return'
p475
F51.38327598571777
tp476
a(S'return'
p477
F51.823665142059326
tp478
a(S'return'
p479
F52.3833281993866
tp480
a(S'return'
p481
F52.90328907966614
tp482
a(S'return'
p483
F53.46328520774841
tp484
a(S'return'
p485
F54.031267166137695
tp486
a(S'return'
p487
F54.583317041397095
tp488
a(S'return'
p489
F55.34054398536682
tp490
a(S'return'
p491
F55.64724802970886
tp492
a(S'return'
p493
F56.15123915672302
tp494
a(S'return'
p495
F56.94033718109131
tp496
a(S'return'
p497
F57.473690032958984
tp498
a(S'return'
p499
F58.00736713409424
tp500
a(S'return'
p501
F58.67132306098938
tp502
a(S'return'
p503
F59.2632520198822
tp504
a(S'return'
p505
F59.871237993240356
tp506
a(S'return'
p507
F60.447285175323486
tp508
a(S'return'
p509
F61.20714020729065
tp510
a(S'return'
p511
F61.740483045578
tp512
a(S'return'
p513
F62.27370619773865
tp514
a(S'return'
p515
F62.575242042541504
tp516
a(S'return'
p517
F63.07920813560486
tp518
a(S'return'
p519
F63.599223136901855
tp520
a(S'return'
p521
F64.14319205284119
tp522
a(S'return'
p523
F64.71124505996704
tp524
a(S'return'
p525
F65.4738130569458
tp526
a(S'return'
p527
F66.0071051120758
tp528
a(S'return'
p529
F66.31924605369568
tp530
a(S'return'
p531
F67.07377219200134
tp532
a(S'return'
p533
F67.38314604759216
tp534
a(S'return'
p535
F68.14039611816406
tp536
a(S'return'
p537
F68.67375802993774
tp538
a(S'return'
p539
F69.20709300041199
tp540
assS'D'
p541
(dp542
g131
(lp543
F247.107684135437
aF247.77205204963684
aF248.40562510490417
aF249.07227301597595
aF249.73881912231445
aF250.37247109413147
aF251.03889799118042
aF251.7053301334381
aF252.33890509605408
aF253.00559616088867
aF253.67202305793762
aF254.30558919906616
aF254.97224617004395
aF255.6387801170349
aF256.27237701416016
aF256.939001083374
aF257.6053020954132
aF258.23885917663574
aF258.9055161476135
aF259.5719690322876
aF260.2055630683899
aF260.8721730709076
aF261.5386881828308
aF262.1723401546478
aF262.8389542102814
aF263.5052571296692
aF264.1388051509857
aF264.805468082428
aF265.4718990325928
aF266.10553002357483
aF266.77213501930237
aF267.4386169910431
aF268.0721471309662
aF268.7387762069702
aF269.4053490161896
aF270.03887605667114
aF270.70544719696045
aF271.3718991279602
aF272.0054249763489
aF272.67214608192444
aF273.3385181427002
aF273.9720890522003
aF274.63875007629395
aF275.30518317222595
aF275.9388930797577
aF276.6053810119629
asg133
(lp544
(S'space'
p545
F247.8940191268921
tp546
a(S'space'
p547
F248.87245106697083
tp548
a(S'space'
p549
F249.38196206092834
tp550
a(S'space'
p551
F250.839035987854
tp552
a(S'space'
p553
F251.8059310913086
tp554
a(S'space'
p555
F252.80579614639282
tp556
a(S'space'
p557
F253.38998007774353
tp558
a(S'space'
p559
F254.1058270931244
tp560
a(S'space'
p561
F254.77240920066833
tp562
a(S'space'
p563
F255.18197011947632
tp564
a(S'space'
p565
F256.0725061893463
tp566
a(S'space'
p567
F256.7391631603241
tp568
a(S'space'
p569
F257.4698340892792
tp570
a(S'space'
p571
F259.04593801498413
tp572
a(S'space'
p573
F260.00569009780884
tp574
a(S'space'
p575
F260.6723589897156
tp576
a(S'space'
p577
F261.222069978714
tp578
a(S'space'
p579
F261.597825050354
tp580
a(S'space'
p581
F262.63912200927734
tp582
a(S'space'
p583
F263.5018479824066
tp584
a(S'space'
p585
F264.7016501426697
tp586
a(S'space'
p587
F265.9056601524353
tp588
a(S'space'
p589
F266.1577651500702
tp590
a(S'space'
p591
F266.57230520248413
tp592
a(S'space'
p593
F267.4057981967926
tp594
a(S'space'
p595
F268.0888011455536
tp596
a(S'space'
p597
F269.05391812324524
tp598
a(S'space'
p599
F269.46175718307495
tp600
a(S'space'
p601
F270.50560998916626
tp602
a(S'space'
p603
F271.06970715522766
tp604
a(S'space'
p605
F271.821741104126
tp606
a(S'space'
p607
F272.55758714675903
tp608
a(S'space'
p609
F273.1577591896057
tp610
a(S'space'
p611
F273.86157512664795
tp612
a(S'space'
p613
F274.54956912994385
tp614
a(S'space'
p615
F275.73905301094055
tp616
asg197
(lp617
(S'right'
p618
F247.54212999343872
tp619
a(S'right'
p620
F248.24593305587769
tp621
a(S'left'
p622
F248.3417251110077
tp623
a(S'right'
p624
F248.90982508659363
tp625
a(S'left'
p626
F249.5658221244812
tp627
a(S'right'
p628
F250.17264103889465
tp629
a(S'left'
p630
F251.0138599872589
tp631
a(S'right'
p632
F251.12588000297546
tp633
a(S'right'
p634
F252.13902306556702
tp635
a(S'left'
p636
F252.27772116661072
tp637
a(S'right'
p638
F252.80571699142456
tp639
a(S'right'
p640
F253.397696018219
tp641
a(S'left'
p642
F253.50168704986572
tp643
a(S'right'
p644
F254.1059160232544
tp645
a(S'left'
p646
F254.555438041687
tp647
a(S'right'
p648
F255.20546197891235
tp649
a(S'left'
p650
F255.85396599769592
tp651
a(S'right'
p652
F256.4379081726074
tp653
a(S'left'
p654
F257.2139492034912
tp655
a(S'right'
p656
F258.125892162323
tp657
a(S'left'
p658
F258.7056441307068
tp659
a(S'right'
p660
F259.5019180774689
tp661
a(S'left'
p662
F260.11770510673523
tp663
a(S'right'
p664
F260.6936631202698
tp665
a(S'left'
p666
F261.32575607299805
tp667
a(S'right'
p668
F261.9724659919739
tp669
a(S'left'
p670
F262.3578510284424
tp671
a(S'right'
p672
F263.1888470649719
tp673
a(S'left'
p674
F263.9389340877533
tp675
a(S'right'
p676
F264.6055791378021
tp677
a(S'left'
p678
F265.50991106033325
tp679
a(S'right'
p680
F265.9656400680542
tp681
a(S'left'
p682
F266.29360008239746
tp683
a(S'right'
p684
F267.0053541660309
tp685
a(S'left'
p686
F267.87226605415344
tp687
a(S'right'
p688
F268.5388970375061
tp689
a(S'left'
p690
F269.17370104789734
tp691
a(S'right'
p692
F269.5655720233917
tp693
a(S'right'
p694
F270.26988101005554
tp695
a(S'left'
p696
F270.50565218925476
tp697
a(S'right'
p698
F270.94462513923645
tp699
a(S'left'
p700
F271.44576811790466
tp701
a(S'right'
p702
F272.47231006622314
tp703
a(S'left'
p704
F272.87771010398865
tp705
a(S'right'
p706
F273.77221608161926
tp707
a(S'left'
p708
F274.43887400627136
tp709
a(S'right'
p710
F275.0058100223541
tp711
a(S'left'
p712
F275.4057970046997
tp713
a(S'right'
p714
F276.40554308891296
tp715
a(S'left'
p716
F276.40564608573914
tp717
asg271
(lp718
F247.43875002861023
aF248.4222640991211
aF249.405513048172
aF250.3887221813202
aF251.37204909324646
aF252.35550498962402
aF253.33865213394165
aF254.3220820426941
aF255.30539107322693
aF256.2886960506439
aF257.2719440460205
aF258.2553241252899
aF259.23862504959106
aF260.22196316719055
aF261.205283164978
aF262.18875098228455
aF263.17209219932556
aF264.1554250717163
aF265.1386079788208
aF266.1220941543579
aF267.1052520275116
aF268.08882904052734
aF269.0720829963684
aF270.05541706085205
aF271.03857612609863
aF272.0221002101898
aF273.00516510009766
aF273.9887080192566
aF274.97189021110535
aF275.95534920692444
asssS'LH'
p719
(dp720
g3
(dp721
g5
(lp722
F185.05580401420593
aF185.5893111228943
aF186.12243819236755
aF186.65594005584717
aF187.18909406661987
aF187.7227041721344
aF188.25590705871582
aF188.78924107551575
aF189.32257413864136
aF189.85589504241943
aF190.38922715187073
aF190.92257618904114
aF191.45589900016785
aF191.98923206329346
aF192.52255415916443
aF193.0557520389557
aF193.58918404579163
aF194.12239408493042
aF194.6559031009674
aF195.18904399871826
aF195.72253704071045
aF196.2558650970459
aF196.7892050743103
aF197.32252597808838
aF197.85584211349487
aF198.38915014266968
aF198.92252111434937
aF199.455806016922
aF199.98915719985962
aF200.52250218391418
aF201.05565118789673
aF201.58914518356323
aF202.12248420715332
aF202.65582013130188
aF203.18899607658386
aF203.72248101234436
aF204.25582599639893
aF204.7891490459442
aF205.32254004478455
aF205.85578107833862
aF206.3891191482544
aF206.92247009277344
aF207.45578718185425
aF207.98912405967712
aF208.52243399620056
aF209.05571603775024
aF209.5891079902649
aF210.12245416641235
aF210.6558120250702
aF211.18893909454346
aF211.722421169281
aF212.25570607185364
aF212.78912615776062
aF213.32240319252014
aF213.85574913024902
aF214.38904118537903
aF214.92243313789368
aF215.4557650089264
aF215.9890410900116
aF216.5223970413208
asg7
(lp723
(S'd'
p724
F185.372967004776
tp725
a(S'a'
p726
F185.90626001358032
tp727
a(S'd'
p728
F186.43945217132568
tp729
a(S'a'
p730
F186.74243116378784
tp731
a(S'd'
p732
F187.20636701583862
tp733
a(S'a'
p734
F187.68630504608154
tp735
a(S'd'
p736
F188.20635604858398
tp737
a(S'a'
p738
F188.71840119361877
tp739
a(S'd'
p740
F189.2063331604004
tp741
a(S'a'
p742
F189.77431797981262
tp743
a(S'd'
p744
F190.31833720207214
tp745
a(S'a'
p746
F190.9226930141449
tp747
a(S'd'
p748
F191.38229608535767
tp749
a(S'a'
p750
F191.95031309127808
tp751
a(S'd'
p752
F192.46227717399597
tp753
a(S'a'
p754
F193.0303611755371
tp755
a(S'd'
p756
F193.58928298950195
tp757
a(S'a'
p758
F194.07838606834412
tp759
a(S'd'
p760
F194.63029599189758
tp761
a(S'a'
p762
F195.1503291130066
tp763
a(S'd'
p764
F195.70227217674255
tp765
a(S'a'
p766
F196.25596117973328
tp767
a(S'd'
p768
F196.75033402442932
tp769
a(S'a'
p770
F197.22228813171387
tp771
a(S'd'
p772
F197.75830221176147
tp773
a(S'a'
p774
F198.3502700328827
tp775
a(S'd'
p776
F198.83836317062378
tp777
a(S'a'
p778
F199.3662769794464
tp779
a(S'd'
p780
F199.87823915481567
tp781
a(S'a'
p782
F200.42225408554077
tp783
a(S'd'
p784
F200.9263141155243
tp785
a(S'a'
p786
F201.4702980518341
tp787
a(S'd'
p788
F201.9902331829071
tp789
a(S'a'
p790
F202.5422441959381
tp791
a(S'd'
p792
F203.06229615211487
tp793
a(S'a'
p794
F203.59825801849365
tp795
a(S'd'
p796
F204.0862181186676
tp797
a(S'a'
p798
F204.64623498916626
tp799
a(S'd'
p800
F205.19827604293823
tp801
a(S'a'
p802
F205.73424410820007
tp803
a(S'd'
p804
F206.31022119522095
tp805
a(S'a'
p806
F206.87028098106384
tp807
a(S'd'
p808
F207.41420602798462
tp809
a(S'a'
p810
F207.91822004318237
tp811
a(S'd'
p812
F208.42219305038452
tp813
a(S'a'
p814
F208.96625804901123
tp815
a(S'd'
p816
F209.58921217918396
tp817
a(S'a'
p818
F210.0941960811615
tp819
a(S'd'
p820
F210.65591597557068
tp821
a(S'a'
p822
F211.13420605659485
tp823
a(S'd'
p824
F211.72252202033997
tp825
a(S'a'
p826
F212.26255416870117
tp827
a(S'd'
p828
F212.79045414924622
tp829
a(S'a'
p830
F213.35021209716797
tp831
a(S'd'
p832
F213.88617515563965
tp833
a(S'a'
p834
F214.43817520141602
tp835
a(S'd'
p836
F214.96623420715332
tp837
a(S'a'
p838
F215.45586705207825
tp839
a(S'd'
p840
F215.95815801620483
tp841
a(S'a'
p842
F216.48614406585693
tp843
a(S'd'
p844
F217.0382170677185
tp845
assg129
(dp846
g131
(lp847
F410.5898721218109
aF411.2542850971222
aF411.8878312110901
aF412.5544810295105
aF413.2209150791168
aF413.8544690608978
aF414.5210921764374
aF415.18769812583923
aF415.82127618789673
aF416.4877791404724
aF417.1542081832886
aF417.78776812553406
aF418.45444202423096
aF419.1208691596985
aF419.75441002845764
aF420.42110204696655
aF421.08767104148865
aF421.72121715545654
aF422.38789200782776
aF423.0541980266571
aF423.6877541542053
aF424.3543961048126
aF425.0208070278168
aF425.6543869972229
aF426.32102513313293
aF426.98747515678406
aF427.62117314338684
aF428.28786301612854
aF428.95414900779724
aF429.5877251625061
aF430.2543640136719
aF430.9208002090454
aF431.5543541908264
aF432.22098302841187
aF432.8874189853668
aF433.5209929943085
aF434.1876730918884
aF434.85409903526306
aF435.48765897750854
aF436.154345035553
aF436.82071018218994
aF437.4542980194092
aF438.1209580898285
aF438.7873752117157
aF439.4210331439972
aF440.0876190662384
asg133
(lp848
(S'return'
p849
F411.20495319366455
tp850
a(S'return'
p851
F412.3546600341797
tp852
a(S'return'
p853
F413.3409171104431
tp854
a(S'return'
p855
F414.372670173645
tp856
a(S'return'
p857
F415.10874819755554
tp858
a(S'return'
p859
F416.2879149913788
tp860
a(S'return'
p861
F417.06874108314514
tp862
a(S'return'
p863
F418.2546110153198
tp864
a(S'return'
p865
F418.89276909828186
tp866
a(S'return'
p867
F420.2212631702423
tp868
a(S'return'
p869
F420.9970381259918
tp870
a(S'return'
p871
F422.1880609989166
tp872
a(S'return'
p873
F423.02067518234253
tp874
a(S'return'
p875
F423.66859698295593
tp876
a(S'return'
p877
F424.92094016075134
tp878
a(S'return'
p879
F426.12115502357483
tp880
a(S'return'
p881
F427.0042531490326
tp882
a(S'return'
p883
F428.08802819252014
tp884
a(S'return'
p885
F429.00466108322144
tp886
a(S'return'
p887
F430.33268904685974
tp888
a(S'return'
p889
F431.3545889854431
tp890
a(S'return'
p891
F432.388797044754
tp892
a(S'return'
p893
F433.5545082092285
tp894
a(S'return'
p895
F434.66881108283997
tp896
a(S'return'
p897
F435.996591091156
tp898
a(S'return'
p899
F436.91643714904785
tp900
a(S'return'
p901
F437.92110300064087
tp902
a(S'return'
p903
F438.72471714019775
tp904
a(S'return'
p905
F439.64460611343384
tp906
asg197
(lp907
(S'd'
p908
F411.42099118232727
tp909
a(S'a'
p910
F411.78891611099243
tp911
a(S'd'
p912
F412.40472412109375
tp913
a(S'a'
p914
F413.01287317276
tp915
a(S'd'
p916
F413.91690707206726
tp917
a(S'a'
p918
F414.3212699890137
tp919
a(S'd'
p920
F414.94883918762207
tp921
a(S'a'
p922
F415.6214120388031
tp923
a(S'd'
p924
F415.8126640319824
tp925
a(S'a'
p926
F416.7008180618286
tp927
a(S'd'
p928
F416.9727590084076
tp929
a(S'd'
p930
F417.85290718078613
tp931
a(S'a'
p932
F418.2546570301056
tp933
a(S'd'
p934
F418.5727961063385
tp935
a(S'a'
p936
F419.5546181201935
tp937
a(S'd'
p938
F419.64462208747864
tp939
a(S'a'
p940
F420.6288080215454
tp941
a(S'd'
p942
F420.67674016952515
tp943
a(S'a'
p944
F421.68483710289
tp945
a(S'd'
p946
F421.76503705978394
tp947
a(S'd'
p948
F422.8047959804535
tp949
a(S'a'
p950
F423.4879500865936
tp951
a(S'd'
p952
F424.7888250350952
tp953
a(S'a'
p954
F425.60481810569763
tp955
a(S'd'
p956
F425.8446741104126
tp957
a(S'a'
p958
F426.5650591850281
tp959
a(S'd'
p960
F426.73274207115173
tp961
a(S'a'
p962
F427.58077001571655
tp963
a(S'd'
p964
F427.70869517326355
tp965
a(S'a'
p966
F428.6607391834259
tp967
a(S'd'
p968
F428.75654220581055
tp969
a(S'a'
p970
F429.8208031654358
tp971
a(S'd'
p972
F430.05449414253235
tp973
a(S'd'
p974
F431.02873516082764
tp975
a(S'a'
p976
F435.70877408981323
tp977
a(S'd'
p978
F435.7164511680603
tp979
a(S'a'
p980
F436.74068808555603
tp981
a(S'd'
p982
F436.80443501472473
tp983
a(S'a'
p984
F436.8765881061554
tp985
a(S'd'
p986
F439.2211661338806
tp987
a(S'a'
p988
F439.42044401168823
tp989
a(S'd'
p990
F439.9325590133667
tp991
asg271
(lp992
F410.9209671020508
aF411.9044201374054
aF412.8875482082367
aF413.87108516693115
aF414.85422801971436
aF415.8375790119171
aF416.82086420059204
aF417.8043930530548
aF418.78753304481506
aF419.770898103714
aF420.754194021225
aF421.7375500202179
aF422.7208230495453
aF423.70421719551086
aF424.6875081062317
aF425.6708631515503
aF426.65416502952576
aF427.6376621723175
aF428.62093114852905
aF429.60431599617004
aF430.5874590873718
aF431.5709571838379
aF432.55412220954895
aF433.5379991531372
aF434.5209062099457
aF435.50430512428284
aF436.4874150753021
aF437.47094321250916
aF438.4540741443634
aF439.43761110305786
assg273
(dp993
g131
(lp994
F506.48935198783875
aF507.1536331176758
aF507.78717517852783
aF508.45381903648376
aF509.12024116516113
aF509.7538001537323
aF510.42047119140625
aF511.0870590209961
aF511.7206971645355
aF512.3872761726379
aF513.0535581111908
aF513.6871111392975
aF514.3537759780884
aF515.0201961994171
aF515.6537690162659
aF516.3204011917114
aF516.9868881702423
aF517.6205940246582
aF518.2872531414032
aF518.953527212143
aF519.5871171951294
aF520.2537250518799
aF520.9201819896698
aF521.5537300109863
aF522.2204041481018
aF522.88685297966
aF523.5203790664673
aF524.1872301101685
aF524.8536281585693
aF525.4870400428772
aF526.1536831855774
aF526.8201332092285
aF527.4536859989166
aF528.1203620433807
aF528.7867901325226
aF529.4203360080719
aF530.0870060920715
aF530.7534291744232
aF531.3871581554413
aF532.0536301136017
aF532.7200601100922
aF533.3536651134491
aF534.020339012146
aF534.6867361068726
aF535.3202910423279
aF535.9869961738586
asg133
(lp995
(S'return'
p996
F507.587354183197
tp997
a(S'return'
p998
F508.2539551258087
tp999
a(S'return'
p1000
F508.98007917404175
tp1001
a(S'return'
p1002
F510.2206521034241
tp1003
a(S'return'
p1004
F511.52090215682983
tp1005
a(S'return'
p1006
F513.487282037735
tp1007
a(S'return'
p1008
F514.9324791431427
tp1009
a(S'return'
p1010
F516.2040481567383
tp1011
a(S'return'
p1012
F517.5720591545105
tp1013
a(S'return'
p1014
F520.1561601161957
tp1015
a(S'return'
p1016
F520.5004031658173
tp1017
a(S'return'
p1018
F521.3960611820221
tp1019
a(S'return'
p1020
F522.9094271659851
tp1021
a(S'return'
p1022
F524.2521200180054
tp1023
a(S'return'
p1024
F527.3639709949493
tp1025
a(S'return'
p1026
F529.2204730510712
tp1027
a(S'return'
p1028
F530.4119560718536
tp1029
a(S'return'
p1030
F531.853903055191
tp1031
a(S'return'
p1032
F533.1538381576538
tp1033
a(S'return'
p1034
F534.2600090503693
tp1035
a(S'return'
p1036
F535.8519861698151
tp1037
asg197
(lp1038
(S'd'
p1039
F506.83706307411194
tp1040
a(S'a'
p1041
F507.6600670814514
tp1042
a(S'd'
p1043
F508.25403213500977
tp1044
a(S'a'
p1045
F508.7802209854126
tp1046
a(S'd'
p1047
F509.5539300441742
tp1048
a(S'a'
p1049
F510.2207431793213
tp1050
a(S'd'
p1051
F510.6605370044708
tp1052
a(S'a'
p1053
F511.5210530757904
tp1054
a(S'd'
p1055
F511.9001851081848
tp1056
a(S'a'
p1057
F512.6203451156616
tp1058
a(S'd'
p1059
F513.0121130943298
tp1060
a(S'a'
p1061
F513.9370090961456
tp1062
a(S'd'
p1063
F514.3804461956024
tp1064
a(S'a'
p1065
F515.4539430141449
tp1066
a(S'd'
p1067
F515.85218501091
tp1068
a(S'a'
p1069
F516.572124004364
tp1070
a(S'd'
p1071
F517.1401221752167
tp1072
a(S'a'
p1073
F518.0873880386353
tp1074
a(S'd'
p1075
F518.147912979126
tp1076
a(S'a'
p1077
F519.3872740268707
tp1078
a(S'd'
p1079
F519.4439930915833
tp1080
a(S'a'
p1081
F520.820305109024
tp1082
a(S'd'
p1083
F520.9079971313477
tp1084
a(S'a'
p1085
F522.0205771923065
tp1086
a(S'd'
p1087
F522.4361231327057
tp1088
a(S'a'
p1089
F523.3205389976501
tp1090
a(S'd'
p1091
F523.5800681114197
tp1092
a(S'a'
p1093
F524.6360931396484
tp1094
a(S'd'
p1095
F525.2871680259705
tp1096
a(S'a'
p1097
F525.9538781642914
tp1098
a(S'd'
p1099
F526.3960881233215
tp1100
a(S'a'
p1101
F526.9720840454102
tp1102
a(S'd'
p1103
F527.6439571380615
tp1104
a(S'a'
p1105
F528.2201170921326
tp1106
a(S'd'
p1107
F528.8035590648651
tp1108
a(S'a'
p1109
F529.6440231800079
tp1110
a(S'd'
p1111
F530.2760682106018
tp1112
a(S'a'
p1113
F530.9000279903412
tp1114
a(S'd'
p1115
F531.5640511512756
tp1116
a(S'a'
p1117
F532.3000190258026
tp1118
a(S'd'
p1119
F532.9000060558319
tp1120
a(S'a'
p1121
F533.8205420970917
tp1122
a(S'd'
p1123
F534.1000220775604
tp1124
a(S'a'
p1125
F535.1204271316528
tp1126
a(S'd'
p1127
F535.5399971008301
tp1128
asg271
(lp1129
F506.82027101516724
aF507.8037610054016
aF508.7869191169739
aF509.7703540325165
aF510.75355219841003
aF511.73695707321167
aF512.7202060222626
aF513.7037470340729
aF514.6868751049042
aF515.6702461242676
aF516.6535210609436
aF517.636871099472
aF518.6203191280365
aF519.6037480831146
aF520.5868611335754
aF521.5702111721039
aF522.5535180568695
aF523.5370211601257
aF524.520339012146
aF525.5036451816559
aF526.4867880344391
aF527.4703080654144
aF528.4534590244293
aF529.4369730949402
aF530.4201312065125
aF531.4036049842834
aF532.3867671489716
aF533.3702731132507
aF534.3534231185913
aF535.3369700908661
assg417
(dp1130
g5
(lp1131
F85.78979110717773
aF86.32325005531311
aF86.85645818710327
aF87.38993620872498
aF87.92309212684631
aF88.45660901069641
aF88.98992013931274
aF89.52333498001099
aF90.05659914016724
aF90.58989906311035
aF91.12321400642395
aF91.65660905838013
aF92.18990206718445
aF92.72322416305542
aF93.25656414031982
aF93.789715051651
aF94.32320213317871
aF94.85654211044312
aF95.38986206054688
aF95.92302703857422
aF96.45655608177185
aF96.98987603187561
aF97.52318120002747
aF98.05651903152466
aF98.58991503715515
aF99.12317299842834
aF99.65657901763916
aF100.18981909751892
aF100.72316312789917
aF101.25650310516357
aF101.78965306282043
aF102.32313799858093
aF102.85649609565735
aF103.38980412483215
aF103.92298698425293
aF104.4564881324768
aF104.98980402946472
aF105.52312517166138
aF106.05647420883179
aF106.58985900878906
aF107.12312698364258
aF107.65645718574524
aF108.18979120254517
aF108.72311115264893
aF109.25644016265869
aF109.789626121521
aF110.32324504852295
aF110.85645198822021
aF111.3897500038147
aF111.9229371547699
aF112.45644116401672
aF112.98973512649536
aF113.52307105064392
aF114.05640506744385
aF114.58974599838257
aF115.12313199043274
aF115.65639805793762
aF116.18971610069275
aF116.72304916381836
aF117.2563910484314
asg7
(lp1132
(S'space'
p1133
F79.51123809814453
tp1134
a(S'space'
p1135
F86.1068971157074
tp1136
a(S'space'
p1137
F86.64032220840454
tp1138
a(S'space'
p1139
F87.17346906661987
tp1140
a(S'space'
p1141
F87.70704507827759
tp1142
a(S'space'
p1143
F88.24011611938477
tp1144
a(S'space'
p1145
F88.77357816696167
tp1146
a(S'space'
p1147
F89.30697202682495
tp1148
a(S'space'
p1149
F89.59101700782776
tp1150
a(S'space'
p1151
F90.07900619506836
tp1152
a(S'space'
p1153
F90.6070830821991
tp1154
a(S'space'
p1155
F91.12911701202393
tp1156
a(S'space'
p1157
F91.65677213668823
tp1158
a(S'space'
p1159
F92.16699314117432
tp1160
a(S'space'
p1161
F92.69505500793457
tp1162
a(S'space'
p1163
F93.25669598579407
tp1164
a(S'space'
p1165
F93.79119300842285
tp1166
a(S'space'
p1167
F94.30296301841736
tp1168
a(S'space'
p1169
F94.81504511833191
tp1170
a(S'space'
p1171
F95.35900712013245
tp1172
a(S'space'
p1173
F95.86297607421875
tp1174
a(S'space'
p1175
F96.43102598190308
tp1176
a(S'space'
p1177
F96.9429841041565
tp1178
a(S'space'
p1179
F97.49495005607605
tp1180
a(S'space'
p1181
F97.98294019699097
tp1182
a(S'space'
p1183
F98.53501319885254
tp1184
a(S'space'
p1185
F99.01494717597961
tp1186
a(S'space'
p1187
F99.55894017219543
tp1188
a(S'space'
p1189
F100.27096819877625
tp1190
a(S'space'
p1191
F100.81499314308167
tp1192
a(S'space'
p1193
F101.33494806289673
tp1194
a(S'space'
p1195
F101.83092498779297
tp1196
a(S'space'
p1197
F102.42298817634583
tp1198
a(S'space'
p1199
F103.17357110977173
tp1200
a(S'space'
p1201
F103.7068600654602
tp1202
a(S'space'
p1203
F104.24001097679138
tp1204
a(S'space'
p1205
F104.77350306510925
tp1206
a(S'space'
p1207
F105.30701017379761
tp1208
a(S'space'
p1209
F105.84021615982056
tp1210
a(S'space'
p1211
F106.4069230556488
tp1212
a(S'space'
p1213
F106.90684509277344
tp1214
a(S'space'
p1215
F107.44017314910889
tp1216
a(S'space'
p1217
F107.97339415550232
tp1218
a(S'space'
p1219
F108.50689506530762
tp1220
a(S'space'
p1221
F109.04020500183105
tp1222
a(S'space'
p1223
F109.57330799102783
tp1224
a(S'space'
p1225
F110.10674715042114
tp1226
a(S'space'
p1227
F110.6402850151062
tp1228
a(S'space'
p1229
F111.17331314086914
tp1230
a(S'space'
p1231
F111.70679306983948
tp1232
a(S'space'
p1233
F112.24001407623291
tp1234
a(S'space'
p1235
F112.77330708503723
tp1236
a(S'space'
p1237
F113.30683517456055
tp1238
a(S'space'
p1239
F113.84010100364685
tp1240
a(S'space'
p1241
F114.37327718734741
tp1242
a(S'space'
p1243
F114.90679121017456
tp1244
a(S'space'
p1245
F115.44012713432312
tp1246
a(S'space'
p1247
F115.97330713272095
tp1248
a(S'space'
p1249
F116.50684404373169
tp1250
a(S'space'
p1251
F117.07882809638977
tp1252
a(S'space'
p1253
F117.62281513214111
tp1254
assg541
(dp1255
g131
(lp1256
F293.22410011291504
aF293.8883900642395
aF294.52192211151123
aF295.1886169910431
aF295.85505199432373
aF296.4885821342468
aF297.1552782058716
aF297.82169699668884
aF298.45525312423706
aF299.12206506729126
aF299.7884871959686
aF300.4219090938568
aF301.08853101730347
aF301.75501799583435
aF302.3885350227356
aF303.0552201271057
aF303.7217411994934
aF304.3552050590515
aF305.0219051837921
aF305.68848514556885
aF306.3220121860504
aF306.9885640144348
aF307.65497517585754
aF308.2885510921478
aF308.9551889896393
aF309.62161207199097
aF310.2551701068878
aF310.92183208465576
aF311.58841705322266
aF312.221971988678
aF312.88860511779785
aF313.55494117736816
aF314.18849515914917
aF314.85515308380127
aF315.521555185318
aF316.15524315834045
aF316.8217861652374
aF317.4882221221924
aF318.1219871044159
aF318.7884111404419
aF319.45487117767334
aF320.08840918540955
aF320.7551190853119
aF321.4215250015259
aF322.0550880432129
aF322.72173619270325
asg133
(lp1257
(S'return'
p1258
F294.005656003952
tp1259
a(S'return'
p1260
F295.2056701183319
tp1261
a(S'return'
p1262
F296.28875708580017
tp1263
a(S'return'
p1264
F297.245609998703
tp1265
a(S'return'
p1266
F298.01360607147217
tp1267
a(S'return'
p1268
F299.1445631980896
tp1269
a(S'return'
p1270
F299.9575960636139
tp1271
a(S'return'
p1272
F301.2056381702423
tp1273
a(S'return'
p1274
F301.86956119537354
tp1275
a(S'return'
p1276
F303.133581161499
tp1277
a(S'return'
p1278
F305.04593300819397
tp1279
a(S'return'
p1280
F305.6136450767517
tp1281
a(S'return'
p1282
F306.7887442111969
tp1283
a(S'return'
p1284
F307.27760314941406
tp1285
a(S'return'
p1286
F307.85331416130066
tp1287
a(S'return'
p1288
F309.0535900592804
tp1289
a(S'return'
p1290
F309.82940101623535
tp1291
a(S'return'
p1292
F310.90130710601807
tp1293
a(S'return'
p1294
F312.0535910129547
tp1295
a(S'return'
p1296
F314.65529012680054
tp1297
a(S'return'
p1298
F315.95541501045227
tp1299
a(S'return'
p1300
F317.141508102417
tp1301
a(S'return'
p1302
F318.58865213394165
tp1303
a(S'return'
p1304
F319.88858819007874
tp1305
a(S'return'
p1306
F321.15750908851624
tp1307
a(S'return'
p1308
F322.5220670700073
tp1309
asg197
(lp1310
(S'd'
p1311
F293.68574619293213
tp1312
a(S'a'
p1313
F294.38158798217773
tp1314
a(S'd'
p1315
F294.9887971878052
tp1316
a(S'a'
p1317
F295.6936399936676
tp1318
a(S'd'
p1319
F296.4374601840973
tp1320
a(S'a'
p1321
F296.9554030895233
tp1322
a(S'd'
p1323
F297.61358308792114
tp1324
a(S'a'
p1325
F298.38950300216675
tp1326
a(S'd'
p1327
F298.9221839904785
tp1328
a(S'a'
p1329
F299.5575590133667
tp1330
a(S'd'
p1331
F300.3494930267334
tp1332
a(S'a'
p1333
F300.88870906829834
tp1334
a(S'd'
p1335
F301.501531124115
tp1336
a(S'a'
p1337
F302.2694730758667
tp1338
a(S'd'
p1339
F302.8553910255432
tp1340
a(S'd'
p1341
F303.7575991153717
tp1342
a(S'a'
p1343
F303.9093360900879
tp1344
a(S'd'
p1345
F304.8220341205597
tp1346
a(S'a'
p1347
F304.8221161365509
tp1348
a(S'd'
p1349
F305.30966210365295
tp1350
a(S'd'
p1351
F306.12213611602783
tp1352
a(S'a'
p1353
F306.1413471698761
tp1354
a(S'd'
p1355
F306.7889151573181
tp1356
a(S'a'
p1357
F307.33837699890137
tp1358
a(S'd'
p1359
F307.73356103897095
tp1360
a(S'a'
p1361
F308.75531816482544
tp1362
a(S'a'
p1363
F309.3574969768524
tp1364
a(S'd'
p1365
F309.54143500328064
tp1366
a(S'a'
p1367
F310.72195506095886
tp1368
a(S'd'
p1369
F310.7414171695709
tp1370
a(S'a'
p1371
F311.45357608795166
tp1372
a(S'a'
p1373
F312.68878197669983
tp1374
a(S'd'
p1375
F313.58197116851807
tp1376
a(S'a'
p1377
F313.98987102508545
tp1378
a(S'd'
p1379
F315.1015410423279
tp1380
a(S'a'
p1381
F315.2774181365967
tp1382
a(S'd'
p1383
F315.6774911880493
tp1384
a(S'a'
p1385
F316.18850803375244
tp1386
a(S'd'
p1387
F316.6694791316986
tp1388
a(S'a'
p1389
F317.9221091270447
tp1390
a(S'd'
p1391
F318.2534680366516
tp1392
a(S'a'
p1393
F319.0454812049866
tp1394
a(S'd'
p1395
F319.64552211761475
tp1396
a(S'a'
p1397
F320.555242061615
tp1398
a(S'd'
p1399
F320.7013611793518
tp1400
a(S'a'
p1401
F321.8774859905243
tp1402
a(S'd'
p1403
F322.52190613746643
tp1404
asg271
(lp1405
F293.555233001709
aF294.53839802742004
aF295.5217959880829
aF296.50522208213806
aF297.4883852005005
aF298.4717631340027
aF299.4550471305847
aF300.4384300708771
aF301.42165899276733
aF302.405061006546
aF303.38830304145813
aF304.37167501449585
aF305.35516119003296
aF306.3385272026062
aF307.32168102264404
aF308.30499720573425
aF309.28832602500916
aF310.2717921733856
aF311.25494599342346
aF312.23843216896057
aF313.2216491699219
aF314.2049460411072
aF315.18828201293945
aF316.1717619895935
aF317.15510606765747
aF318.1383969783783
aF319.12170219421387
aF320.1050751209259
aF321.08826899528503
aF322.07164216041565
asss.