(dp0
S'RH'
p1
(dp2
S'A'
p3
(dp4
S'S'
p5
(lp6
F271.2429881095886
aF271.77630400657654
aF272.309632062912
aF272.84296107292175
aF273.3762879371643
aF273.9096200466156
aF274.4429440498352
aF274.9762740135193
aF275.5095999240875
aF276.0429298877716
aF276.5762560367584
aF277.10964703559875
aF277.64291405677795
aF278.1762409210205
aF278.70956897735596
aF279.24290108680725
aF279.7762269973755
aF280.3095529079437
aF280.8428819179535
aF281.37621092796326
aF281.9095380306244
aF282.44286704063416
aF282.9761939048767
aF283.5095229148865
aF284.0428500175476
aF284.57618498802185
aF285.1095058917999
aF285.6428349018097
aF286.17616391181946
aF286.7094919681549
aF287.24281907081604
aF287.7761490345001
aF288.30947709083557
aF288.8428039550781
aF289.37620306015015
aF289.909460067749
aF290.4427909851074
aF290.97617197036743
aF291.5094459056854
aF292.0427739620209
aF292.57613801956177
aF293.1094288825989
aF293.64275598526
aF294.17609691619873
aF294.7094190120697
aF295.2427411079407
aF295.7762920856476
aF296.30940103530884
aF296.8427269458771
aF297.37609910964966
aF297.909383058548
aF298.44271206855774
aF298.9760708808899
aF299.50936794281006
aF300.0426969528198
aF300.5760509967804
aF301.10941100120544
aF301.6426808834076
aF302.17601203918457
aF302.70934009552
asS'M'
p7
(lp8
(S'right'
p9
F271.5599489212036
tp10
a(S'left'
p11
F272.0932230949402
tp12
a(S'right'
p13
F272.38551211357117
tp14
a(S'left'
p15
F272.80949902534485
tp16
a(S'right'
p17
F273.3215129375458
tp18
a(S'left'
p19
F273.80150389671326
tp20
a(S'right'
p21
F274.4175000190735
tp22
a(S'left'
p23
F274.97750902175903
tp24
a(S'right'
p25
F275.5375099182129
tp26
a(S'left'
p27
F276.11351895332336
tp28
a(S'right'
p29
F276.6095139980316
tp30
a(S'left'
p31
F277.1455099582672
tp32
a(S'right'
p33
F277.7055048942566
tp34
a(S'left'
p35
F278.49319410324097
tp36
a(S'right'
p37
F278.8015089035034
tp38
a(S'left'
p39
F279.5598568916321
tp40
a(S'right'
p41
F280.09315299987793
tp42
a(S'left'
p43
F280.62647104263306
tp44
a(S'right'
p45
F280.92951798439026
tp46
a(S'left'
p47
F281.4735150337219
tp48
a(S'right'
p49
F281.92951703071594
tp50
a(S'left'
p51
F282.50552105903625
tp52
a(S'right'
p53
F283.0415050983429
tp54
a(S'left'
p55
F283.60149908065796
tp56
a(S'right'
p57
F284.0175108909607
tp58
a(S'left'
p59
F284.6575129032135
tp60
a(S'right'
p61
F285.1935179233551
tp62
a(S'left'
p63
F285.95979404449463
tp64
a(S'right'
p65
F286.24949193000793
tp66
a(S'left'
p67
F286.8095180988312
tp68
a(S'right'
p69
F287.5597789287567
tp70
a(S'left'
p71
F288.0930700302124
tp72
a(S'right'
p73
F288.62634801864624
tp74
a(S'left'
p75
F289.1599659919739
tp76
a(S'right'
p77
F289.69304895401
tp78
a(S'left'
p79
F289.9375190734863
tp80
a(S'right'
p81
F290.5135200023651
tp82
a(S'left'
p83
F291.05750703811646
tp84
a(S'right'
p85
F291.60951495170593
tp86
a(S'left'
p87
F292.3597390651703
tp88
a(S'right'
p89
F292.8930160999298
tp90
a(S'left'
p91
F293.4263279438019
tp92
a(S'right'
p93
F293.9596788883209
tp94
a(S'left'
p95
F294.24151396751404
tp96
a(S'right'
p97
F294.7775149345398
tp98
a(S'left'
p99
F295.28152203559875
tp100
a(S'right'
p101
F295.817724943161
tp102
a(S'left'
p103
F296.37752509117126
tp104
a(S'right'
p105
F296.8735189437866
tp106
a(S'left'
p107
F297.40950989723206
tp108
a(S'right'
p109
F297.9094429016113
tp110
a(S'left'
p111
F298.42552399635315
tp112
a(S'right'
p113
F298.9375081062317
tp114
a(S'left'
p115
F299.45751094818115
tp116
a(S'right'
p117
F300.01751708984375
tp118
a(S'left'
p119
F300.57757091522217
tp120
a(S'right'
p121
F301.0895209312439
tp122
a(S'left'
p123
F301.6735110282898
tp124
a(S'right'
p125
F302.2495160102844
tp126
a(S'left'
p127
F302.7295289039612
tp128
assS'DT'
p129
(dp130
S'AS'
p131
(lp132
F535.3260259628296
aF535.990415096283
aF536.6239678859711
aF537.2905929088593
aF537.9570729732513
aF538.5906069278717
aF539.2572999000549
aF539.923721075058
aF540.5572440624237
aF541.2239580154419
aF541.8903639316559
aF542.5238809585571
aF543.1905460357666
aF543.8570120334625
aF544.4905450344086
aF545.1571938991547
aF545.8236598968506
aF546.4571940898895
aF547.1238930225372
aF547.7903048992157
aF548.4238350391388
aF549.0904810428619
aF549.756954908371
aF550.3904809951782
aF551.0571579933167
aF551.7236061096191
aF552.3571290969849
aF553.0238530635834
aF553.6902530193329
aF554.3237810134888
aF554.9904289245605
aF555.6568899154663
aF556.290421962738
aF556.9570789337158
aF557.6235430240631
aF558.2570660114288
aF558.9237360954285
aF559.5901811122894
aF560.2237229347229
aF560.8903739452362
aF561.5568270683289
aF562.1903629302979
aF562.857029914856
aF563.5234899520874
aF564.1570069789886
aF564.8236780166626
asS'TM'
p133
(lp134
(S'space'
p135
F535.9777500629425
tp136
a(S'space'
p137
F536.424045085907
tp138
a(S'space'
p139
F536.6094980239868
tp140
a(S'space'
p141
F537.2654960155487
tp142
a(S'space'
p143
F538.5214660167694
tp144
a(S'space'
p145
F539.8654870986938
tp146
a(S'space'
p147
F540.4574799537659
tp148
a(S'space'
p149
F541.5457589626312
tp150
a(S'space'
p151
F542.3774740695953
tp152
a(S'space'
p153
F543.3694729804993
tp154
a(S'space'
p155
F544.5695140361786
tp156
a(S'space'
p157
F545.5454919338226
tp158
a(S'space'
p159
F546.5054779052734
tp160
a(S'space'
p161
F547.4736890792847
tp162
a(S'space'
p163
F548.5615088939667
tp164
a(S'space'
p165
F549.5054829120636
tp166
a(S'space'
p167
F550.4654989242554
tp168
a(S'space'
p169
F551.6814720630646
tp170
a(S'space'
p171
F552.5134809017181
tp172
a(S'space'
p173
F553.4574899673462
tp174
a(S'space'
p175
F554.4734780788422
tp176
a(S'space'
p177
F555.4735100269318
tp178
a(S'space'
p179
F556.3778131008148
tp180
a(S'space'
p181
F557.321475982666
tp182
a(S'space'
p183
F558.2974879741669
tp184
a(S'space'
p185
F559.3134698867798
tp186
a(S'space'
p187
F560.6904349327087
tp188
a(S'space'
p189
F561.5054640769958
tp190
a(S'space'
p191
F562.3054690361023
tp192
a(S'space'
p193
F563.3054840564728
tp194
a(S'space'
p195
F564.6237618923187
tp196
asS'AM'
p197
(lp198
(S'left'
p199
F536.4735019207001
tp200
a(S'left'
p201
F537.945473909378
tp202
a(S'left'
p203
F540.0255389213562
tp204
a(S'left'
p205
F541.545804977417
tp206
a(S'left'
p207
F542.5694999694824
tp208
a(S'left'
p209
F544.7214639186859
tp210
a(S'left'
p211
F547.4094710350037
tp212
a(S'right'
p213
F548.3694961071014
tp214
a(S'left'
p215
F551.0254650115967
tp216
a(S'left'
p217
F551.9135029315948
tp218
a(S'left'
p219
F554.7904880046844
tp220
a(S'left'
p221
F555.6895380020142
tp222
a(S'right'
p223
F556.3777649402618
tp224
a(S'left'
p225
F557.6014719009399
tp226
a(S'left'
p227
F558.7238659858704
tp228
a(S'left'
p229
F559.6334779262543
tp230
a(S'left'
p231
F560.8094639778137
tp232
asS'TS'
p233
(lp234
F535.6573040485382
aF536.6404130458832
aF537.6237289905548
aF538.6071019172668
aF539.5903780460358
aF540.5737268924713
aF541.557028055191
aF542.5403730869293
aF543.5236749649048
aF544.5070219039917
aF545.4903209209442
aF546.4736669063568
aF547.4569730758667
aF548.440318107605
aF549.423614025116
aF550.4069631099701
aF551.39027094841
aF552.3736839294434
aF553.3569090366364
aF554.3402578830719
aF555.3236200809479
aF556.3069050312042
aF557.2902081012726
aF558.2735509872437
aF559.2568480968475
aF560.2402009963989
aF561.2235100269318
aF562.2068469524384
aF563.1901519298553
aF564.1734969615936
assS'DA'
p235
(dp236
g131
(lp237
F652.74161195755
aF653.405965089798
aF654.0394790172577
aF654.7062659263611
aF655.3725900650024
aF656.0063469409943
aF656.6728460788727
aF657.3392369747162
aF657.9727699756622
aF658.6394410133362
aF659.305881023407
aF659.939425945282
aF660.6060891151428
aF661.2725360393524
aF661.9060509204865
aF662.5727798938751
aF663.2391879558563
aF663.872701883316
aF664.5393760204315
aF665.205892086029
aF665.8393540382385
aF666.5060849189758
aF667.1724689006805
aF667.8059930801392
aF668.472708940506
aF669.139123916626
aF669.772656917572
aF670.4393179416656
aF671.1057770252228
aF671.7393050193787
aF672.4059610366821
aF673.0724260807037
aF673.7059419155121
aF674.3726758956909
aF675.0390748977661
aF675.6726009845734
aF676.3392629623413
aF677.0057260990143
aF677.639242887497
aF678.3059120178223
aF678.9726068973541
aF679.6058969497681
aF680.2726030349731
aF680.9390120506287
aF681.5725378990173
aF682.2392020225525
asg133
(lp238
(S'space'
p239
F654.9615299701691
tp240
a(S'space'
p241
F657.9892909526825
tp242
a(S'space'
p243
F668.937520980835
tp244
a(S'space'
p245
F675.6894700527191
tp246
asg197
(lp247
(S'right'
p248
F653.1058049201965
tp249
a(S'left'
p250
F653.83957695961
tp251
a(S'right'
p252
F654.1375160217285
tp253
a(S'left'
p254
F654.8577959537506
tp255
a(S'right'
p256
F655.4255790710449
tp257
a(S'left'
p258
F655.9696819782257
tp259
a(S'right'
p260
F656.6495521068573
tp261
a(S'left'
p262
F657.3055219650269
tp263
a(S'left'
p264
F658.4395160675049
tp265
a(S'right'
p266
F659.2815461158752
tp267
a(S'left'
p268
F660.0255410671234
tp269
a(S'right'
p270
F660.7615149021149
tp271
a(S'left'
p272
F661.361515045166
tp273
a(S'right'
p274
F661.922581911087
tp275
a(S'left'
p276
F662.5937049388885
tp277
a(S'right'
p278
F663.2335150241852
tp279
a(S'left'
p280
F663.9935390949249
tp281
a(S'right'
p282
F664.809564113617
tp283
a(S'left'
p284
F665.249538898468
tp285
a(S'right'
p286
F665.9055030345917
tp287
a(S'left'
p288
F666.5695090293884
tp289
a(S'right'
p290
F667.2095079421997
tp291
a(S'left'
p292
F667.9455389976501
tp293
a(S'right'
p294
F668.5855159759521
tp295
a(S'left'
p296
F669.2815299034119
tp297
a(S'right'
p298
F669.8575270175934
tp299
a(S'left'
p300
F670.3935010433197
tp301
a(S'right'
p302
F671.1535139083862
tp303
a(S'left'
p304
F671.7135210037231
tp305
a(S'right'
p306
F672.4335310459137
tp307
a(S'left'
p308
F673.0891399383545
tp309
a(S'right'
p310
F673.7695219516754
tp311
a(S'left'
p312
F674.4655408859253
tp313
a(S'right'
p314
F675.1295440196991
tp315
a(S'left'
p316
F676.139347076416
tp317
a(S'left'
p318
F676.6890978813171
tp319
a(S'left'
p320
F677.4392991065979
tp321
a(S'right'
p322
F677.8890850543976
tp323
a(S'left'
p324
F678.3935248851776
tp325
a(S'right'
p326
F679.0735080242157
tp327
a(S'left'
p328
F679.6224160194397
tp329
a(S'right'
p330
F680.2890720367432
tp331
a(S'left'
p332
F680.9295270442963
tp333
a(S'right'
p334
F681.6895790100098
tp335
asg233
(lp336
F653.0726211071014
aF654.0559821128845
aF655.0392758846283
aF656.0228319168091
aF657.0059061050415
aF657.9893159866333
aF658.9725589752197
aF659.9559199810028
aF660.9392170906067
aF661.9226059913635
aF662.9058630466461
aF663.8894159793854
aF664.8724958896637
aF665.8558609485626
aF666.8391559123993
aF667.8224890232086
aF668.8058021068573
aF669.7891380786896
aF670.7724440097809
aF671.7558069229126
aF672.7391130924225
aF673.7224349975586
aF674.7057490348816
aF675.6890559196472
aF676.6723930835724
aF677.6557168960571
aF678.6390419006348
aF679.6224410533905
aF680.6056799888611
aF681.5889990329742
assS'T'
p337
(dp338
g5
(lp339
F150.42749691009521
aF150.9608030319214
aF151.4941279888153
aF152.0274579524994
aF152.5607841014862
aF153.09411311149597
aF153.62744402885437
aF154.1607699394226
aF154.69409894943237
aF155.22762989997864
aF155.76075410842896
aF156.29408192634583
aF156.8274118900299
aF157.36073803901672
aF157.89406490325928
aF158.42739701271057
aF158.9607241153717
aF159.4940528869629
aF160.02738189697266
aF160.56070590019226
aF161.09403610229492
aF161.62736701965332
aF162.16089391708374
aF162.694020986557
aF163.2273509502411
aF163.76067805290222
aF164.29400396347046
aF164.82733702659607
aF165.36066102981567
aF165.89398789405823
aF166.42732191085815
aF166.96064496040344
aF167.4939739704132
aF168.0273060798645
aF168.5606300830841
aF169.09416007995605
aF169.62728810310364
aF170.1606159210205
aF170.69394302368164
aF171.22727489471436
aF171.76060104370117
aF172.29392790794373
aF172.8272590637207
aF173.36058497428894
aF173.8939130306244
aF174.42724299430847
aF174.9605679512024
aF175.49462008476257
aF176.02722597122192
aF176.56055402755737
aF177.09408402442932
aF177.62721395492554
aF178.16053700447083
aF178.6938660144806
aF179.227196931839
aF179.76052403450012
aF180.29385089874268
aF180.82718300819397
aF181.36050605773926
aF181.89383602142334
asg7
(lp340
(S'return'
p341
F150.8495180606842
tp342
a(S'return'
p343
F151.2777578830719
tp344
a(S'return'
p345
F151.56146502494812
tp346
a(S'return'
p347
F152.0414650440216
tp348
a(S'return'
p349
F152.44147109985352
tp350
a(S'return'
p351
F152.99345302581787
tp352
a(S'return'
p353
F153.4334659576416
tp354
a(S'return'
p355
F153.94445395469666
tp356
a(S'return'
p357
F154.20945405960083
tp358
a(S'return'
p359
F154.66546392440796
tp360
a(S'return'
p361
F155.1454620361328
tp362
a(S'return'
p363
F155.61747288703918
tp364
a(S'return'
p365
F156.61100697517395
tp366
a(S'return'
p367
F156.8734700679779
tp368
a(S'return'
p369
F157.33746910095215
tp370
a(S'return'
p371
F157.79348802566528
tp372
a(S'return'
p373
F158.21102690696716
tp374
a(S'return'
p375
F158.7443881034851
tp376
a(S'return'
p377
F158.93746304512024
tp378
a(S'return'
p379
F159.36146998405457
tp380
a(S'return'
p381
F159.8175129890442
tp382
a(S'return'
p383
F160.3443729877472
tp384
a(S'return'
p385
F160.87762999534607
tp386
a(S'return'
p387
F161.18546891212463
tp388
a(S'return'
p389
F161.68145608901978
tp390
a(S'return'
p391
F162.10546708106995
tp392
a(S'return'
p393
F162.53746700286865
tp394
a(S'return'
p395
F163.01094794273376
tp396
a(S'return'
p397
F163.54431200027466
tp398
a(S'return'
p399
F164.3934669494629
tp400
a(S'return'
p401
F164.91347002983093
tp402
a(S'return'
p403
F165.4494709968567
tp404
a(S'return'
p405
F165.9294650554657
tp406
a(S'return'
p407
F166.38545894622803
tp408
a(S'return'
p409
F166.8814709186554
tp410
a(S'return'
p411
F167.36146807670593
tp412
a(S'return'
p413
F167.81089997291565
tp414
a(S'return'
p415
F168.3442690372467
tp416
a(S'return'
p417
F168.87755799293518
tp418
a(S'return'
p419
F169.1294629573822
tp420
a(S'return'
p421
F169.54546403884888
tp422
a(S'return'
p423
F170.0654740333557
tp424
a(S'return'
p425
F170.54544711112976
tp426
a(S'return'
p427
F171.057471036911
tp428
a(S'return'
p429
F171.54423189163208
tp430
a(S'return'
p431
F171.83347296714783
tp432
a(S'return'
p433
F172.23347306251526
tp434
a(S'return'
p435
F172.62547898292542
tp436
a(S'return'
p437
F173.14422011375427
tp438
a(S'return'
p439
F173.37746810913086
tp440
a(S'return'
p441
F173.79345989227295
tp442
a(S'return'
p443
F174.7441999912262
tp444
a(S'return'
p445
F175.277498960495
tp446
a(S'return'
p447
F175.56967997550964
tp448
a(S'return'
p449
F176.0494740009308
tp450
a(S'return'
p451
F176.5854721069336
tp452
a(S'return'
p453
F177.10547804832458
tp454
a(S'return'
p455
F177.54547095298767
tp456
a(S'return'
p457
F177.96146607398987
tp458
a(S'return'
p459
F178.4774980545044
tp460
a(S'return'
p461
F179.01083087921143
tp462
a(S'return'
p463
F179.2734649181366
tp464
a(S'return'
p465
F179.76058506965637
tp466
a(S'return'
p467
F180.20949697494507
tp468
a(S'return'
p469
F180.64147210121155
tp470
a(S'return'
p471
F181.2014729976654
tp472
a(S'return'
p473
F181.92148208618164
tp474
assS'D'
p475
(dp476
g131
(lp477
F409.8105719089508
aF410.47502303123474
aF411.10851192474365
aF411.77514910697937
aF412.44162011146545
aF413.07515692710876
aF413.7417950630188
aF414.4082670211792
aF415.0418028831482
aF415.7083330154419
aF416.37491106987
aF417.0084300041199
aF417.67509293556213
aF418.3415639400482
aF418.9751000404358
aF419.64174604415894
aF420.3082060813904
aF420.94173097610474
aF421.6084620952606
aF422.2748579978943
aF422.9083969593048
aF423.57504892349243
aF424.2415020465851
aF424.8750400543213
aF425.5416970252991
aF426.20820903778076
aF426.84168004989624
aF427.508416891098
aF428.1747920513153
aF428.8083930015564
aF429.4749939441681
aF430.1414530277252
aF430.7750310897827
aF431.4416399002075
aF432.1081268787384
aF432.74167490005493
aF433.4083480834961
aF434.0747380256653
aF434.7082989215851
aF435.37492990493774
aF436.04138588905334
aF436.6749849319458
aF437.34158301353455
aF438.00827193260193
aF438.64156794548035
aF439.30829310417175
asg133
(lp478
(S'space'
p479
F410.9085578918457
tp480
a(S'space'
p481
F411.19360399246216
tp482
a(S'space'
p483
F412.04956102371216
tp484
a(S'space'
p485
F414.27356791496277
tp486
a(S'space'
p487
F415.2655580043793
tp488
a(S'space'
p489
F416.0415630340576
tp490
a(S'space'
p491
F418.20155906677246
tp492
a(S'space'
p493
F418.9615499973297
tp494
a(S'space'
p495
F419.8335499763489
tp496
a(S'space'
p497
F421.44955611228943
tp498
a(S'space'
p499
F422.24955701828003
tp500
a(S'space'
p501
F423.37513303756714
tp502
a(S'space'
p503
F423.8175880908966
tp504
a(S'space'
p505
F424.6751220226288
tp506
a(S'space'
p507
F425.84156703948975
tp508
a(S'space'
p509
F426.6659541130066
tp510
a(S'space'
p511
F427.35357093811035
tp512
a(S'space'
p513
F428.60846495628357
tp514
a(S'space'
p515
F431.9855589866638
tp516
a(S'space'
p517
F432.9215669631958
tp518
a(S'space'
p519
F433.8735439777374
tp520
a(S'space'
p521
F434.50837898254395
tp522
a(S'space'
p523
F435.17498207092285
tp524
a(S'space'
p525
F435.6895549297333
tp526
a(S'space'
p527
F436.4750990867615
tp528
a(S'space'
p529
F437.14163088798523
tp530
a(S'space'
p531
F437.66556096076965
tp532
a(S'space'
p533
F438.7775630950928
tp534
asg197
(lp535
(S'right'
p536
F410.26561093330383
tp537
a(S'right'
p538
F411.0175549983978
tp539
a(S'left'
p540
F411.5752410888672
tp541
a(S'left'
p542
F412.8752028942108
tp543
a(S'left'
p544
F414.8418478965759
tp545
a(S'right'
p546
F415.6417739391327
tp547
a(S'left'
p548
F416.8084900379181
tp549
a(S'left'
p550
F418.7751450538635
tp551
a(S'right'
p552
F419.4417989253998
tp553
a(S'left'
p554
F420.3935489654541
tp555
a(S'right'
p556
F420.8495469093323
tp557
a(S'left'
p558
F422.7455530166626
tp559
a(S'right'
p560
F423.4416010379791
tp561
a(S'left'
p562
F424.1135559082031
tp563
a(S'left'
p564
F425.3417479991913
tp565
a(S'right'
p566
F426.1615478992462
tp567
a(S'right'
p568
F426.66599893569946
tp569
a(S'left'
p570
F427.48155307769775
tp571
a(S'right'
p572
F428.1055700778961
tp573
a(S'left'
p574
F429.0581669807434
tp575
a(S'right'
p576
F430.5751268863678
tp577
a(S'left'
p578
F431.7915060520172
tp579
a(S'right'
p580
F432.5417559146881
tp581
a(S'left'
p582
F433.24154806137085
tp583
a(S'right'
p584
F433.5775589942932
tp585
a(S'left'
p586
F434.145565032959
tp587
a(S'right'
p588
F434.741446018219
tp589
a(S'left'
p590
F435.49756693840027
tp591
a(S'right'
p592
F436.0015630722046
tp593
a(S'left'
p594
F436.6575520038605
tp595
a(S'right'
p596
F437.27354407310486
tp597
a(S'left'
p598
F438.0655689239502
tp599
a(S'right'
p600
F438.4416460990906
tp601
asg233
(lp602
F410.1416370868683
aF411.1249830722809
aF412.1082830429077
aF413.09164905548096
aF414.07492899894714
aF415.0582790374756
aF416.0417959690094
aF417.02492690086365
aF418.0082280635834
aF418.9915909767151
aF419.9748749732971
aF420.9582200050354
aF421.94152188301086
aF422.92484402656555
aF423.90816593170166
aF424.89153695106506
aF425.87481594085693
aF426.85816502571106
aF427.84145998954773
aF428.8248119354248
aF429.8081729412079
aF430.79147601127625
aF431.77475595474243
aF432.7581069469452
aF433.7414209842682
aF434.72475504875183
aF435.7080900669098
aF436.6914300918579
aF437.6747040748596
aF438.65805101394653
asssS'LH'
p603
(dp604
g3
(dp605
g5
(lp606
F340.1089971065521
aF340.6423110961914
aF341.17563796043396
aF341.7089569568634
aF342.2424900531769
aF342.7756190299988
aF343.308944940567
aF343.842276096344
aF344.37566900253296
aF344.90893507003784
aF345.44225788116455
aF345.97559094429016
aF346.5089120864868
aF347.0422399044037
aF347.5755729675293
aF348.1088969707489
aF348.64222598075867
aF349.17555689811707
aF349.7088830471039
aF350.24241304397583
aF350.77554297447205
aF351.30886793136597
aF351.8421940803528
aF352.3755838871002
aF352.9088521003723
aF353.4421761035919
aF353.97551107406616
aF354.50883889198303
aF355.0421450138092
aF355.5757119655609
aF356.10888290405273
aF356.64214992523193
aF357.1756811141968
aF357.7088050842285
aF358.24213194847107
aF358.77546310424805
aF359.3087909221649
aF359.8421220779419
aF360.37550592422485
aF360.9087760448456
aF361.44210290908813
aF361.97543501853943
aF362.50875902175903
aF363.0420889854431
aF363.5754179954529
aF364.1088020801544
aF364.6421298980713
aF365.17560505867004
aF365.7087290287018
aF366.24205708503723
aF366.775386095047
aF367.30871200561523
aF367.8420379161835
aF368.37542605400085
aF368.90869402885437
aF369.44203090667725
aF369.97535395622253
aF370.50868010520935
aF371.04202008247375
aF371.5753390789032
asg7
(lp607
(S'a'
p608
F340.44969296455383
tp609
a(S'd'
p610
F340.9592320919037
tp611
a(S'a'
p612
F342.0258820056915
tp613
a(S'd'
p614
F342.32939410209656
tp615
a(S'a'
p616
F342.7757110595703
tp617
a(S'd'
p618
F343.2813940048218
tp619
a(S'a'
p620
F343.77740001678467
tp621
a(S'd'
p622
F344.29741311073303
tp623
a(S'a'
p624
F344.8334369659424
tp625
a(S'd'
p626
F345.45740699768066
tp627
a(S'a'
p628
F345.9533910751343
tp629
a(S'd'
p630
F346.513592004776
tp631
a(S'a'
p632
F347.025386095047
tp633
a(S'd'
p634
F347.57566595077515
tp635
a(S'a'
p636
F348.1613960266113
tp637
a(S'd'
p638
F348.95914793014526
tp639
a(S'a'
p640
F349.201406955719
tp641
a(S'd'
p642
F349.72157406806946
tp643
a(S'a'
p644
F350.257395029068
tp645
a(S'd'
p646
F350.7373991012573
tp647
a(S'a'
p648
F351.24940299987793
tp649
a(S'd'
p650
F351.7933979034424
tp651
a(S'a'
p652
F352.3293950557709
tp653
a(S'd'
p654
F352.8253970146179
tp655
a(S'a'
p656
F353.4653968811035
tp657
a(S'd'
p658
F353.9213969707489
tp659
a(S'a'
p660
F354.48141288757324
tp661
a(S'd'
p662
F355.0422101020813
tp663
a(S'a'
p664
F355.65765500068665
tp665
a(S'd'
p666
F356.177433013916
tp667
a(S'a'
p668
F356.7134280204773
tp669
a(S'd'
p670
F357.23341488838196
tp671
a(S'a'
p672
F357.7088670730591
tp673
a(S'd'
p674
F358.3054060935974
tp675
a(S'a'
p676
F358.80140805244446
tp677
a(S'd'
p678
F359.3215959072113
tp679
a(S'a'
p680
F359.84218406677246
tp681
a(S'd'
p682
F360.353404045105
tp683
a(S'a'
p684
F360.88939809799194
tp685
a(S'd'
p686
F361.36939692497253
tp687
a(S'a'
p688
F361.9054090976715
tp689
a(S'd'
p690
F362.5088210105896
tp691
a(S'a'
p692
F362.9614050388336
tp693
a(S'd'
p694
F363.57551097869873
tp695
a(S'a'
p696
F364.1215760707855
tp697
a(S'd'
p698
F364.64219903945923
tp699
a(S'a'
p700
F365.0733950138092
tp701
a(S'd'
p702
F365.67340207099915
tp703
a(S'a'
p704
F366.19340801239014
tp705
a(S'd'
p706
F366.77547788619995
tp707
a(S'a'
p708
F367.36942291259766
tp709
a(S'd'
p710
F368.1589939594269
tp711
a(S'a'
p712
F368.6923499107361
tp713
a(S'd'
p714
F369.22561597824097
tp715
a(S'a'
p716
F369.4974069595337
tp717
a(S'd'
p718
F370.01741099357605
tp719
a(S'a'
p720
F370.51357889175415
tp721
a(S'd'
p722
F371.04209089279175
tp723
a(S'a'
p724
F371.5934069156647
tp725
assg129
(dp726
g131
(lp727
F596.0587720870972
aF596.7231829166412
aF597.3566970825195
aF598.0233590602875
aF598.6898140907288
aF599.3233261108398
aF599.9900069236755
aF600.6564519405365
aF601.2899758815765
aF601.9567050933838
aF602.6231141090393
aF603.256628036499
aF603.9233179092407
aF604.5897409915924
aF605.2232990264893
aF605.8899340629578
aF606.5563941001892
aF607.1899390220642
aF607.8566489219666
aF608.5230529308319
aF609.1565589904785
aF609.8232340812683
aF610.4896938800812
aF611.1232159137726
aF611.7898950576782
aF612.4563479423523
aF613.0898690223694
aF613.7565960884094
aF614.4229950904846
aF615.056510925293
aF615.7231740951538
aF616.3896379470825
aF617.0231630802155
aF617.6898338794708
aF618.3562788963318
aF618.9898118972778
aF619.6565389633179
aF620.3229379653931
aF620.9564769268036
aF621.6231141090393
aF622.289598941803
aF622.9231131076813
aF623.5897769927979
aF624.2562189102173
aF624.8897449970245
aF625.5564870834351
asg133
(lp728
(S'return'
p729
F596.8335208892822
tp730
a(S'return'
p731
F597.8234479427338
tp732
a(S'return'
p733
F598.4175128936768
tp734
a(S'return'
p735
F599.4175000190735
tp736
a(S'return'
p737
F600.3614990711212
tp738
a(S'return'
p739
F601.3854899406433
tp740
a(S'return'
p741
F602.4814999103546
tp742
a(S'return'
p743
F603.4415240287781
tp744
a(S'return'
p745
F604.2014908790588
tp746
a(S'return'
p747
F605.2565560340881
tp748
a(S'return'
p749
F606.2974939346313
tp750
a(S'return'
p751
F607.0895280838013
tp752
a(S'return'
p753
F607.6567220687866
tp754
a(S'return'
p755
F608.4895169734955
tp756
a(S'return'
p757
F609.4064230918884
tp758
a(S'return'
p759
F610.5294909477234
tp760
a(S'return'
p761
F611.5899739265442
tp762
a(S'return'
p763
F612.3854999542236
tp764
a(S'return'
p765
F613.5566771030426
tp766
a(S'return'
p767
F614.3374989032745
tp768
a(S'return'
p769
F615.2175259590149
tp770
a(S'return'
p771
F616.2415039539337
tp772
a(S'return'
p773
F617.2255420684814
tp774
a(S'return'
p775
F618.1615080833435
tp776
a(S'return'
p777
F619.0575070381165
tp778
a(S'return'
p779
F620.241555929184
tp780
a(S'return'
p781
F621.0975320339203
tp782
a(S'return'
p783
F622.0655019283295
tp784
a(S'return'
p785
F623.3898220062256
tp786
a(S'return'
p787
F624.1374959945679
tp788
a(S'return'
p789
F625.3565709590912
tp790
asg197
(lp791
(S'd'
p792
F596.4898269176483
tp793
a(S'd'
p794
F597.1567859649658
tp795
a(S'd'
p796
F597.823569059372
tp797
a(S'd'
p798
F598.649533033371
tp799
a(S'd'
p800
F599.7900879383087
tp801
a(S'a'
p802
F600.0814950466156
tp803
a(S'a'
p804
F601.7568359375
tp805
a(S'd'
p806
F605.4014809131622
tp807
a(S'd'
p808
F606.9899859428406
tp809
a(S'd'
p810
F610.3455009460449
tp811
a(S'a'
p812
F611.81751704216
tp813
a(S'a'
p814
F613.5567491054535
tp815
a(S'a'
p816
F618.3054850101471
tp817
a(S'a'
p818
F622.4335050582886
tp819
asg233
(lp820
F596.3898310661316
aF597.3731780052185
aF598.3564839363098
aF599.3397979736328
aF600.3231220245361
aF601.3064680099487
aF602.2897779941559
aF603.2731149196625
aF604.2564299106598
aF605.2397840023041
aF606.2230689525604
aF607.206414937973
aF608.1897110939026
aF609.1730580329895
aF610.1563699245453
aF611.139946937561
aF612.1230039596558
aF613.1063549518585
aF614.089653968811
aF615.073000907898
aF616.056314945221
aF617.0396699905396
aF618.0231630802155
aF619.0062971115112
aF619.9895949363708
aF620.9729459285736
aF621.9562458992004
aF622.9396140575409
aF623.9229030609131
aF624.9064350128174
assg235
(dp821
g131
(lp822
F704.857743024826
aF705.5221199989319
aF706.1556499004364
aF706.8222949504852
aF707.4887490272522
aF708.1222820281982
aF708.7890028953552
aF709.455404996872
aF710.0889360904694
aF710.7555871009827
aF711.4220399856567
aF712.0555789470673
aF712.7222259044647
aF713.3886859416962
aF714.0222070217133
aF714.6889369487762
aF715.3553469181061
aF715.9890840053558
aF716.6555440425873
aF717.321986913681
aF717.9555320739746
aF718.6221799850464
aF719.2886369228363
aF719.9221730232239
aF720.5888819694519
aF721.2552840709686
aF721.8888239860535
aF722.5554869174957
aF723.2219269275665
aF723.8554530143738
aF724.5221939086914
aF725.1885859966278
aF725.8220989704132
aF726.4888188838959
aF727.1552290916443
aF727.7887449264526
aF728.4554190635681
aF729.1218779087067
aF729.7554039955139
aF730.4220640659332
aF731.0885200500488
aF731.722048997879
aF732.3887619972229
aF733.0551669597626
aF733.6887059211731
aF734.3553709983826
asg133
(lp823
(S'return'
p824
F708.5891299247742
tp825
asg197
(lp826
(S'a'
p827
F705.2257900238037
tp828
a(S'd'
p829
F705.3775670528412
tp830
a(S'a'
p831
F706.6223509311676
tp832
a(S'a'
p833
F707.1215341091156
tp834
a(S'd'
p835
F707.5215399265289
tp836
a(S'a'
p837
F708.2175300121307
tp838
a(S'd'
p839
F708.8895359039307
tp840
a(S'a'
p841
F709.6095259189606
tp842
a(S'd'
p843
F710.1855270862579
tp844
a(S'a'
p845
F710.8415539264679
tp846
a(S'd'
p847
F711.5695369243622
tp848
a(S'a'
p849
F712.1855421066284
tp850
a(S'd'
p851
F712.9554460048676
tp852
a(S'a'
p853
F713.4054110050201
tp854
a(S'd'
p855
F714.0015358924866
tp856
a(S'a'
p857
F714.7775650024414
tp858
a(S'd'
p859
F715.4175879955292
tp860
a(S'a'
p861
F716.1377279758453
tp862
a(S'd'
p863
F716.7775690555573
tp864
a(S'a'
p865
F717.4095520973206
tp866
a(S'd'
p867
F718.0975360870361
tp868
a(S'a'
p869
F718.673544883728
tp870
a(S'd'
p871
F719.3135468959808
tp872
a(S'a'
p873
F719.9695239067078
tp874
a(S'd'
p875
F720.7695419788361
tp876
a(S'a'
p877
F721.4655609130859
tp878
a(S'd'
p879
F722.3555688858032
tp880
a(S'a'
p881
F722.7215309143066
tp882
a(S'd'
p883
F723.2655439376831
tp884
a(S'a'
p885
F723.9215428829193
tp886
a(S'd'
p887
F724.5615758895874
tp888
a(S'a'
p889
F725.2175559997559
tp890
a(S'd'
p891
F725.9375450611115
tp892
a(S'a'
p893
F726.5535550117493
tp894
a(S'd'
p895
F727.2575449943542
tp896
a(S'a'
p897
F727.8735311031342
tp898
a(S'd'
p899
F728.5135600566864
tp900
a(S'a'
p901
F729.1135311126709
tp902
a(S'd'
p903
F729.729544878006
tp904
a(S'a'
p905
F730.3855350017548
tp906
a(S'd'
p907
F730.9885718822479
tp908
a(S'a'
p909
F731.6415619850159
tp910
a(S'd'
p911
F732.265547990799
tp912
a(S'a'
p913
F733.0015399456024
tp914
a(S'd'
p915
F733.7855401039124
tp916
a(S'a'
p917
F734.2175319194794
tp918
asg233
(lp919
F705.1887741088867
aF706.1721749305725
aF707.1554310321808
aF708.1387400627136
aF709.1222848892212
aF710.1054859161377
aF711.0887289047241
aF712.0721011161804
aF713.0553689002991
aF714.0387060642242
aF715.0220201015472
aF716.0055809020996
aF716.9886600971222
aF717.9720220565796
aF718.9553070068359
aF719.938649892807
aF720.9219601154327
aF721.9052970409393
aF722.8886120319366
aF723.8719630241394
aF724.8552510738373
aF725.8385939598083
aF726.8218998908997
aF727.8052399158478
aF728.7885520458221
aF729.7719080448151
aF730.7552070617676
aF731.7385370731354
aF732.7218370437622
aF733.7051820755005
assg337
(dp920
g5
(lp921
F209.16025590896606
aF209.69356608390808
aF210.22689294815063
aF210.7602219581604
aF211.29355096817017
aF211.82687902450562
aF212.36020803451538
aF212.89353489875793
aF213.42686295509338
aF213.96039199829102
aF214.4935200214386
aF215.02684688568115
aF215.56017899513245
aF216.09350299835205
aF216.62683296203613
aF217.1601619720459
aF217.69348907470703
aF218.2268180847168
aF218.76014709472656
aF219.29347395896912
aF219.82680296897888
aF220.3601861000061
aF220.8936619758606
aF221.42678689956665
aF221.96016693115234
aF222.49344611167908
aF223.02677011489868
aF223.56014490127563
aF224.09342694282532
aF224.62675595283508
aF225.16011309623718
aF225.69341111183167
aF226.22673892974854
aF226.76009798049927
aF227.29339599609375
aF227.8267240524292
aF228.36008310317993
aF228.8935821056366
aF229.4267098903656
aF229.96006608009338
aF230.4933660030365
aF231.02669596672058
aF231.5600459575653
aF232.09334897994995
aF232.62667798995972
aF233.160010099411
aF233.69333410263062
aF234.2266640663147
aF234.7599949836731
aF235.29332208633423
aF235.82685208320618
aF236.3599829673767
aF236.89330291748047
aF237.42663097381592
aF237.9599630832672
aF238.49328899383545
aF239.02661609649658
aF239.5599479675293
aF240.09327292442322
aF240.62660002708435
asg7
(lp922
(S'space'
p923
F202.90585088729858
tp924
a(S'space'
p925
F209.47721195220947
tp926
a(S'space'
p927
F209.7934730052948
tp928
a(S'space'
p929
F210.54385495185852
tp930
a(S'space'
p931
F210.8494839668274
tp932
a(S'space'
p933
F211.3454830646515
tp934
a(S'space'
p935
F211.82694005966187
tp936
a(S'space'
p937
F212.32148909568787
tp938
a(S'space'
p939
F212.89752388000488
tp940
a(S'space'
p941
F213.45747590065002
tp942
a(S'space'
p943
F214.01748299598694
tp944
a(S'space'
p945
F214.5534930229187
tp946
a(S'space'
p947
F215.0894799232483
tp948
a(S'space'
p949
F215.63348507881165
tp950
a(S'space'
p951
F216.09356498718262
tp952
a(S'space'
p953
F216.60948705673218
tp954
a(S'space'
p955
F217.12148690223694
tp956
a(S'space'
p957
F217.6935510635376
tp958
a(S'space'
p959
F218.20149087905884
tp960
a(S'space'
p961
F218.7614769935608
tp962
a(S'space'
p963
F219.2734899520874
tp964
a(S'space'
p965
F219.80948400497437
tp966
a(S'space'
p967
F220.36948204040527
tp968
a(S'space'
p969
F220.90549302101135
tp970
a(S'space'
p971
F221.74375295639038
tp972
a(S'space'
p973
F222.2770779132843
tp974
a(S'space'
p975
F222.58551406860352
tp976
a(S'space'
p977
F223.09748697280884
tp978
a(S'space'
p979
F223.5774929523468
tp980
a(S'space'
p981
F224.09752988815308
tp982
a(S'space'
p983
F224.62681794166565
tp984
a(S'space'
p985
F225.1934928894043
tp986
a(S'space'
p987
F225.7534840106964
tp988
a(S'space'
p989
F226.24949407577515
tp990
a(S'space'
p991
F226.8494861125946
tp992
a(S'space'
p993
F227.61035895347595
tp994
a(S'space'
p995
F228.1436870098114
tp996
a(S'space'
p997
F228.6769790649414
tp998
a(S'space'
p999
F229.21030497550964
tp1000
a(S'space'
p1001
F229.74366807937622
tp1002
a(S'space'
p1003
F230.27699899673462
tp1004
a(S'space'
p1005
F230.8103449344635
tp1006
a(S'space'
p1007
F231.10548496246338
tp1008
a(S'space'
p1009
F231.6094789505005
tp1010
a(S'space'
p1011
F232.09341096878052
tp1012
a(S'space'
p1013
F232.5854890346527
tp1014
a(S'space'
p1015
F233.1214780807495
tp1016
a(S'space'
p1017
F233.64148902893066
tp1018
a(S'space'
p1019
F234.17749905586243
tp1020
a(S'space'
p1021
F234.60948705673218
tp1022
a(S'space'
p1023
F235.12948203086853
tp1024
a(S'space'
p1025
F235.6102991104126
tp1026
a(S'space'
p1027
F236.143807888031
tp1028
a(S'space'
p1029
F236.67689609527588
tp1030
a(S'space'
p1031
F237.21023392677307
tp1032
a(S'space'
p1033
F237.74359893798828
tp1034
a(S'space'
p1035
F238.27691388130188
tp1036
a(S'space'
p1037
F238.81021690368652
tp1038
a(S'space'
p1039
F239.34358501434326
tp1040
a(S'space'
p1041
F239.87691187858582
tp1042
a(S'space'
p1043
F240.14548587799072
tp1044
a(S'space'
p1045
F240.70548009872437
tp1046
assg475
(dp1047
g131
(lp1048
F467.34333300590515
aF468.0077528953552
aF468.64127588272095
aF469.307993888855
aF469.97439098358154
aF470.60792803764343
aF471.27457189559937
aF471.94104409217834
aF472.57457304000854
aF473.24123311042786
aF473.9076900482178
aF474.5412209033966
aF475.20795011520386
aF475.87433791160583
aF476.50794410705566
aF477.17451310157776
aF477.8409879207611
aF478.47451996803284
aF479.1411669254303
aF479.80763506889343
aF480.44117307662964
aF481.1078848838806
aF481.7742729187012
aF482.40782594680786
aF483.0744640827179
aF483.7409200668335
aF484.3746700286865
aF485.04110407829285
aF485.7075779438019
aF486.34110593795776
aF487.00776410102844
aF487.6742260456085
aF488.3077669143677
aF488.974406003952
aF489.6408760547638
aF490.2743990421295
aF490.9410569667816
aF491.6075279712677
aF492.2410399913788
aF492.90771889686584
aF493.5741651058197
aF494.2076940536499
aF494.8743600845337
aF495.54080295562744
aF496.1743440628052
aF496.8410611152649
asg133
(lp1049
(S'return'
p1050
F468.4414150714874
tp1051
a(S'return'
p1052
F469.73758602142334
tp1053
a(S'return'
p1054
F470.13757705688477
tp1055
a(S'return'
p1056
F471.8175640106201
tp1057
a(S'return'
p1058
F472.6895821094513
tp1059
a(S'return'
p1060
F474.04158210754395
tp1061
a(S'return'
p1062
F474.55773401260376
tp1063
a(S'return'
p1064
F475.45801997184753
tp1065
a(S'return'
p1066
F477.52436900138855
tp1067
a(S'return'
p1068
F479.19344091415405
tp1069
a(S'return'
p1070
F479.7454481124878
tp1071
a(S'return'
p1072
F480.691113948822
tp1073
a(S'return'
p1074
F481.67432498931885
tp1075
a(S'return'
p1076
F482.4409849643707
tp1077
a(S'return'
p1078
F483.26545000076294
tp1079
a(S'return'
p1080
F484.1747510433197
tp1081
a(S'return'
p1082
F486.1411919593811
tp1083
a(S'return'
p1084
F486.8254539966583
tp1085
a(S'return'
p1086
F488.28144001960754
tp1087
a(S'return'
p1088
F489.1214849948883
tp1089
a(S'return'
p1090
F490.0744481086731
tp1091
a(S'return'
p1092
F491.0574400424957
tp1093
a(S'return'
p1094
F492.04109597206116
tp1095
a(S'return'
p1096
F492.70779299736023
tp1097
a(S'return'
p1098
F493.43345308303833
tp1099
a(S'return'
p1100
F494.3134729862213
tp1101
a(S'return'
p1102
F495.22428798675537
tp1103
asg197
(lp1104
(S'a'
p1105
F468.0976231098175
tp1106
a(S'a'
p1107
F469.61790800094604
tp1108
a(S'a'
p1109
F470.40807008743286
tp1110
a(S'd'
p1111
F471.5295751094818
tp1112
a(S'a'
p1113
F472.3746600151062
tp1114
a(S'd'
p1115
F473.04131507873535
tp1116
a(S'a'
p1117
F473.63358211517334
tp1118
a(S'd'
p1119
F474.34131598472595
tp1120
a(S'a'
p1121
F475.00802302360535
tp1122
a(S'a'
p1123
F475.45806789398193
tp1124
a(S'd'
p1125
F476.08968591690063
tp1126
a(S'a'
p1127
F477.00950503349304
tp1128
a(S'a'
p1129
F478.27459502220154
tp1130
a(S'a'
p1131
F478.9456510543823
tp1132
a(S'd'
p1133
F479.41744804382324
tp1134
a(S'a'
p1135
F480.24124908447266
tp1136
a(S'a'
p1137
F481.2094430923462
tp1138
a(S'a'
p1139
F482.20790100097656
tp1140
a(S'd'
p1141
F482.8745210170746
tp1142
a(S'a'
p1143
F483.6894690990448
tp1144
a(S'a'
p1145
F484.84116888046265
tp1146
a(S'd'
p1147
F485.32956290245056
tp1148
a(S'd'
p1149
F486.32144689559937
tp1150
a(S'a'
p1151
F488.10784888267517
tp1152
a(S'a'
p1153
F489.4494390487671
tp1154
a(S'a'
p1155
F490.75348711013794
tp1156
a(S'd'
p1157
F491.5854630470276
tp1158
a(S'a'
p1159
F492.2577819824219
tp1160
a(S'd'
p1161
F493.08945298194885
tp1162
a(S'a'
p1163
F494.67444610595703
tp1164
a(S'a'
p1165
F495.22435688972473
tp1166
a(S'd'
p1167
F495.5774579048157
tp1168
a(S'a'
p1169
F496.64113903045654
tp1170
asg233
(lp1171
F467.6744101047516
aF468.66040897369385
aF469.64107298851013
aF470.62440609931946
aF471.60771894454956
aF472.5910539627075
aF473.57435607910156
aF474.55775809288025
aF475.5410039424896
aF476.5243270397186
aF477.5076539516449
aF478.4910020828247
aF479.4743070602417
aF480.4576449394226
aF481.4409489631653
aF482.42429399490356
aF483.4075930118561
aF484.3909409046173
aF485.37423610687256
aF486.35758900642395
aF487.340882062912
aF488.3242371082306
aF489.30754804611206
aF490.2908809185028
aF491.2741858959198
aF492.25780606269836
aF493.24082708358765
aF494.2241790294647
aF495.2074890136719
aF496.1907980442047
asss.