(dp0
S'RH'
p1
(dp2
S'A'
p3
(dp4
S'S'
p5
(lp6
F232.71130895614624
aF233.2446129322052
aF233.77793788909912
aF234.3112599849701
aF234.84459781646729
aF235.37792778015137
aF235.9112458229065
aF236.4445698261261
aF236.97790598869324
aF237.5114288330078
aF238.0445568561554
aF238.5778889656067
aF239.11121201515198
aF239.64454078674316
aF240.1778769493103
aF240.71120190620422
aF241.244530916214
aF241.77785682678223
aF242.31119084358215
aF242.8445107936859
aF243.37784099578857
aF243.91116499900818
aF244.44449281692505
aF244.97782588005066
aF245.51134991645813
aF246.0444779396057
aF246.57780981063843
aF247.11113381385803
aF247.6444628238678
aF248.1777949333191
aF248.71111679077148
aF249.24444699287415
aF249.77777886390686
aF250.31111192703247
aF250.84444499015808
aF251.37776494026184
aF251.91108584403992
aF252.44461178779602
aF252.97774600982666
aF253.51106882095337
aF254.04439878463745
aF254.57773089408875
aF255.11105298995972
aF255.64438581466675
aF256.17771792411804
aF256.71104288101196
aF257.24436688423157
aF257.77769780158997
aF258.31102180480957
aF258.84435296058655
aF259.3778839111328
aF259.91100692749023
aF260.4443328380585
aF260.9776768684387
aF261.5109930038452
aF262.0443208217621
aF262.57764983177185
aF263.11097598075867
aF263.6443018913269
aF264.17763590812683
asS'M'
p7
(lp8
(S'right'
p9
F233.08835196495056
tp10
a(S'left'
p11
F233.5615599155426
tp12
a(S'right'
p13
F234.09485483169556
tp14
a(S'left'
p15
F234.36008286476135
tp16
a(S'right'
p17
F234.76009893417358
tp18
a(S'left'
p19
F235.28007698059082
tp20
a(S'right'
p21
F235.77608489990234
tp22
a(S'left'
p23
F236.27207398414612
tp24
a(S'right'
p25
F236.7682569026947
tp26
a(S'left'
p27
F237.29485297203064
tp28
a(S'right'
p29
F237.82814598083496
tp30
a(S'left'
p31
F238.3615128993988
tp32
a(S'right'
p33
F238.89479994773865
tp34
a(S'left'
p35
F239.42813301086426
tp36
a(S'right'
p37
F239.96149396896362
tp38
a(S'left'
p39
F240.49482083320618
tp40
a(S'right'
p41
F241.02810883522034
tp42
a(S'left'
p43
F241.56148481369019
tp44
a(S'right'
p45
F242.0947768688202
tp46
a(S'left'
p47
F242.62810492515564
tp48
a(S'right'
p49
F243.161456823349
tp50
a(S'left'
p51
F243.69475889205933
tp52
a(S'right'
p53
F244.22808480262756
tp54
a(S'left'
p55
F244.76145100593567
tp56
a(S'right'
p57
F244.76156997680664
tp58
a(S'right'
p59
F245.2947449684143
tp60
a(S'left'
p61
F245.82807779312134
tp62
a(S'right'
p63
F246.36142492294312
tp64
a(S'left'
p65
F246.90427088737488
tp66
a(S'right'
p67
F247.52008700370789
tp68
a(S'left'
p69
F248.00008487701416
tp70
a(S'right'
p71
F248.61607384681702
tp72
a(S'left'
p73
F249.13608288764954
tp74
a(S'right'
p75
F249.67209196090698
tp76
a(S'left'
p77
F250.15208196640015
tp78
a(S'right'
p79
F250.67211198806763
tp80
a(S'left'
p81
F251.23211097717285
tp82
a(S'right'
p83
F251.74409794807434
tp84
a(S'left'
p85
F252.32808995246887
tp86
a(S'right'
p87
F252.90408182144165
tp88
a(S'left'
p89
F253.4640769958496
tp90
a(S'right'
p91
F254.0160858631134
tp92
a(S'left'
p93
F254.53607487678528
tp94
a(S'right'
p95
F255.07207798957825
tp96
a(S'left'
p97
F255.5521068572998
tp98
a(S'right'
p99
F256.10408782958984
tp100
a(S'left'
p101
F256.62412095069885
tp102
a(S'right'
p103
F257.1041328907013
tp104
a(S'left'
p105
F257.6240928173065
tp106
a(S'right'
p107
F258.1600739955902
tp108
a(S'left'
p109
F258.6960790157318
tp110
a(S'right'
p111
F259.25607800483704
tp112
a(S'left'
p113
F259.7920877933502
tp114
a(S'right'
p115
F260.27208495140076
tp116
a(S'left'
p117
F260.8081018924713
tp118
a(S'right'
p119
F261.3440999984741
tp120
a(S'left'
p121
F261.86410188674927
tp122
a(S'right'
p123
F262.424085855484
tp124
a(S'left'
p125
F262.94407987594604
tp126
a(S'right'
p127
F263.48009395599365
tp128
a(S'left'
p129
F264.00008487701416
tp130
a(S'right'
p131
F264.63208293914795
tp132
assS'DT'
p133
(dp134
S'AS'
p135
(lp136
F481.2111008167267
aF481.8754918575287
aF482.50903391838074
aF483.17568588256836
aF483.8421998023987
aF484.47567486763
aF485.142413854599
aF485.8087909221649
aF486.44236493110657
aF487.1089768409729
aF487.77542901039124
aF488.4089729785919
aF489.07563400268555
aF489.7421028614044
aF490.37562084198
aF491.0423378944397
aF491.7087278366089
aF492.3422849178314
aF493.0089168548584
aF493.6753787994385
aF494.30889892578125
aF494.9755778312683
aF495.64203000068665
aF496.27554988861084
aF496.9422838687897
aF497.60867500305176
aF498.2422080039978
aF498.90886092185974
aF499.57532501220703
aF500.20883798599243
aF500.87552094459534
aF501.54197788238525
aF502.17548179626465
aF502.8422257900238
aF503.5086119174957
aF504.1421458721161
aF504.80879497528076
aF505.4752688407898
aF506.1087999343872
aF506.77550983428955
aF507.4419159889221
aF508.0754280090332
aF508.7421519756317
aF509.40856194496155
aF510.04207587242126
aF510.70874094963074
asS'TM'
p137
(lp138
(S'space'
p139
F482.0723090171814
tp140
a(S'space'
p141
F482.97576999664307
tp142
a(S'space'
p143
F483.52834582328796
tp144
a(S'space'
p145
F484.4083089828491
tp146
a(S'space'
p147
F485.9283080101013
tp148
a(S'space'
p149
F487.0483047962189
tp150
a(S'space'
p151
F487.74431800842285
tp152
a(S'space'
p153
F488.8756799697876
tp154
a(S'space'
p155
F489.6643137931824
tp156
a(S'space'
p157
F490.5042989253998
tp158
a(S'space'
p159
F491.5043148994446
tp160
a(S'space'
p161
F492.8090088367462
tp162
a(S'space'
p163
F493.52830386161804
tp164
a(S'space'
p165
F494.7756588459015
tp166
a(S'space'
p167
F495.5527060031891
tp168
a(S'space'
p169
F496.35231494903564
tp170
a(S'space'
p171
F497.2483170032501
tp172
a(S'space'
p173
F498.2967059612274
tp174
a(S'space'
p175
F499.23270893096924
tp176
a(S'space'
p177
F500.1447548866272
tp178
a(S'space'
p179
F501.20069789886475
tp180
a(S'space'
p181
F502.23231196403503
tp182
a(S'space'
p183
F503.1367099285126
tp184
a(S'space'
p185
F504.12032294273376
tp186
a(S'space'
p187
F505.10430884361267
tp188
a(S'space'
p189
F506.20831394195557
tp190
a(S'space'
p191
F507.4967019557953
tp192
a(S'space'
p193
F508.54230999946594
tp194
a(S'space'
p195
F509.16874980926514
tp196
a(S'space'
p197
F510.50882291793823
tp198
asS'AM'
p199
(lp200
(S'right'
p201
F481.8403539657593
tp202
a(S'right'
p203
F485.47230887413025
tp204
a(S'left'
p205
F486.3282959461212
tp206
a(S'right'
p207
F492.8243248462677
tp208
a(S'left'
p209
F493.7203018665314
tp210
a(S'left'
p211
F495.55275082588196
tp212
a(S'right'
p213
F496.4883358478546
tp214
a(S'left'
p215
F497.3043098449707
tp216
a(S'right'
p217
F498.2967507839203
tp218
a(S'left'
p219
F499.2327539920807
tp220
a(S'right'
p221
F500.1447079181671
tp222
a(S'left'
p223
F501.2007439136505
tp224
a(S'right'
p225
F502.32030487060547
tp226
a(S'left'
p227
F503.13675594329834
tp228
a(S'right'
p229
F507.49674892425537
tp230
a(S'left'
p231
F508.54223799705505
tp232
a(S'right'
p233
F509.16870284080505
tp234
a(S'left'
p235
F510.5088918209076
tp236
asS'TS'
p237
(lp238
F481.54222083091736
aF482.5255289077759
aF483.5088138580322
aF484.49215388298035
aF485.475457906723
aF486.4587998390198
aF487.4421408176422
aF488.42546582221985
aF489.4087588787079
aF490.3922929763794
aF491.37540578842163
aF492.3587439060211
aF493.34207487106323
aF494.32540798187256
aF495.30869793891907
aF496.2920358181
aF497.27555680274963
aF498.25868582725525
aF499.24199080467224
aF500.2253530025482
aF501.2086329460144
aF502.1919798851013
aF503.1752898693085
aF504.15881991386414
aF505.14193081855774
aF506.1252908706665
aF507.10858488082886
aF508.0919198989868
aF509.07522892951965
aF510.0585699081421
assS'DA'
p239
(dp240
g135
(lp241
F585.2602038383484
aF585.9244709014893
aF586.5579988956451
aF587.2247948646545
aF587.8911128044128
aF588.5246348381042
aF589.1912848949432
aF589.8577690124512
aF590.4912958145142
aF591.1580169200897
aF591.8244028091431
aF592.457937002182
aF593.1246068477631
aF593.7910478115082
aF594.4245848655701
aF595.0912349224091
aF595.7576978206635
aF596.3912320137024
aF597.0579378604889
aF597.7243409156799
aF598.357882976532
aF599.024582862854
aF599.6910059452057
aF600.324521780014
aF600.9911777973175
aF601.6576428413391
aF602.2911629676819
aF602.9579019546509
aF603.6242949962616
aF604.2578268051147
aF604.9244728088379
aF605.5909328460693
aF606.2244558334351
aF606.8911278247833
aF607.5575888156891
aF608.1911067962646
aF608.8577778339386
aF609.5242388248444
aF610.1577768325806
aF610.8244209289551
aF611.4908828735352
aF612.1244239807129
aF612.7911338806152
aF613.4575369358063
aF614.0910549163818
aF614.7577259540558
asg137
(lp242
(S'space'
p243
F589.1043438911438
tp244
a(S'space'
p245
F589.9927878379822
tp246
a(S'space'
p247
F590.9581549167633
tp248
a(S'space'
p249
F591.3367998600006
tp250
a(S'space'
p251
F592.2963509559631
tp252
a(S'space'
p253
F593.7443468570709
tp254
a(S'space'
p255
F598.2323508262634
tp256
a(S'space'
p257
F598.8967838287354
tp258
a(S'space'
p259
F599.7077147960663
tp260
a(S'space'
p261
F600.4967470169067
tp262
a(S'space'
p263
F601.1527848243713
tp264
a(S'space'
p265
F601.7047419548035
tp266
a(S'space'
p267
F602.7579779624939
tp268
a(S'space'
p269
F604.7245638370514
tp270
a(S'space'
p271
F605.3923377990723
tp272
a(S'space'
p273
F607.3443520069122
tp274
a(S'space'
p275
F608.3283829689026
tp276
a(S'space'
p277
F609.1683518886566
tp278
a(S'space'
p279
F609.9579048156738
tp280
a(S'space'
p281
F610.6245257854462
tp282
a(S'space'
p283
F611.1203479766846
tp284
a(S'space'
p285
F611.6887938976288
tp286
a(S'space'
p287
F612.5912158489227
tp288
a(S'space'
p289
F613.2243468761444
tp290
a(S'space'
p291
F614.2003529071808
tp292
asg199
(lp293
(S'right'
p294
F585.6566679477692
tp295
a(S'left'
p296
F586.3580780029297
tp297
a(S'right'
p298
F586.5923359394073
tp299
a(S'left'
p300
F587.2726039886475
tp301
a(S'right'
p302
F587.832347869873
tp303
a(S'left'
p304
F588.4083299636841
tp305
a(S'right'
p306
F589.4403398036957
tp307
a(S'left'
p308
F589.9927399158478
tp309
a(S'right'
p310
F590.4723389148712
tp311
a(S'left'
p312
F591.3367519378662
tp313
a(S'right'
p314
F591.8964939117432
tp315
a(S'left'
p316
F592.9246888160706
tp317
a(S'right'
p318
F593.3283448219299
tp319
a(S'left'
p320
F594.2246398925781
tp321
a(S'right'
p322
F594.6243388652802
tp323
a(S'left'
p324
F595.2643358707428
tp325
a(S'right'
p326
F595.7763409614563
tp327
a(S'left'
p328
F596.4077458381653
tp329
a(S'right'
p330
F597.0803759098053
tp331
a(S'left'
p332
F597.6403498649597
tp333
a(S'right'
p334
F598.3043398857117
tp335
a(S'left'
p336
F598.8967368602753
tp337
a(S'right'
p338
F599.6003768444061
tp339
a(S'left'
p340
F600.4967927932739
tp341
a(S'right'
p342
F601.1527369022369
tp343
a(S'left'
p344
F601.7047870159149
tp345
a(S'right'
p346
F602.3363738059998
tp347
a(S'left'
p348
F603.2323517799377
tp349
a(S'right'
p350
F603.5843257904053
tp351
a(S'left'
p352
F604.1843478679657
tp353
a(S'right'
p354
F605.0403499603271
tp355
a(S'left'
p356
F605.6323449611664
tp357
a(S'right'
p358
F606.2577338218689
tp359
a(S'left'
p360
F606.7843518257141
tp361
a(S'right'
p362
F607.656350851059
tp363
a(S'left'
p364
F608.2076280117035
tp365
a(S'right'
p366
F608.8483338356018
tp367
a(S'left'
p368
F609.7283527851105
tp369
a(S'right'
p370
F610.6244788169861
tp371
a(S'left'
p372
F611.0576298236847
tp373
a(S'right'
p374
F611.6887469291687
tp375
a(S'left'
p376
F612.5912837982178
tp377
a(S'right'
p378
F612.9923529624939
tp379
a(S'left'
p380
F613.8911118507385
tp381
a(S'right'
p382
F614.5578038692474
tp383
asg237
(lp384
F585.5911328792572
aF586.5744779109955
aF587.5577898025513
aF588.5411169528961
aF589.5244219303131
aF590.5077729225159
aF591.4910759925842
aF592.4744608402252
aF593.4577298164368
aF594.4410669803619
aF595.4245839118958
aF596.4077699184418
aF597.3910248279572
aF598.3744440078735
aF599.3576638698578
aF600.3410098552704
aF601.3243179321289
aF602.3076558113098
aF603.2911629676819
aF604.2743039131165
aF605.2576048374176
aF606.2409479618073
aF607.2242670059204
aF608.2076518535614
aF609.190896987915
aF610.1742479801178
aF611.1575598716736
aF612.1408929824829
aF613.1241898536682
aF614.107540845871
assS'T'
p385
(dp386
g5
(lp387
F125.86235189437866
aF126.39566397666931
aF126.92898297309875
aF127.46251082420349
aF127.99563694000244
aF128.5289649963379
aF129.06229400634766
aF129.5956199169159
aF130.12894892692566
aF130.66227984428406
aF131.19561290740967
aF131.7289378643036
aF132.2622618675232
aF132.79558992385864
aF133.3289167881012
aF133.86224484443665
aF134.3955729007721
aF134.92890191078186
aF135.4624319076538
aF135.99555897712708
aF136.52888584136963
aF137.06221389770508
aF137.5955410003662
aF138.12886881828308
aF138.66220879554749
aF139.1955258846283
aF139.72885394096375
aF140.2621829509735
aF140.79551100730896
aF141.32884001731873
aF141.86217093467712
aF142.39549493789673
aF142.92882299423218
aF143.4623899459839
aF143.9954798221588
aF144.52880692481995
aF145.06219387054443
aF145.59546399116516
aF146.12879085540771
aF146.66217184066772
aF147.19544982910156
aF147.72877597808838
aF148.26213383674622
aF148.7954318523407
aF149.32876181602478
aF149.86211895942688
aF150.39541482925415
aF150.92904782295227
aF151.4622859954834
aF151.99540185928345
aF152.52872896194458
aF153.0620880126953
aF153.59538388252258
aF154.12871193885803
aF154.66207194328308
aF155.19536781311035
aF155.7286958694458
aF156.2620267868042
aF156.79535388946533
aF157.32868480682373
asg7
(lp388
(S'return'
p389
F126.1793258190155
tp390
a(S'return'
p391
F126.71261692047119
tp392
a(S'return'
p393
F127.24599599838257
tp394
a(S'return'
p395
F127.77923679351807
tp396
a(S'return'
p397
F128.05604481697083
tp398
a(S'return'
p399
F128.5120108127594
tp400
a(S'return'
p401
F128.952054977417
tp402
a(S'return'
p403
F129.48802781105042
tp404
a(S'return'
p405
F129.91254782676697
tp406
a(S'return'
p407
F130.4459137916565
tp408
a(S'return'
p409
F130.9842779636383
tp410
a(S'return'
p411
F131.51253080368042
tp412
a(S'return'
p413
F132.0458948612213
tp414
a(S'return'
p415
F132.57927799224854
tp416
a(S'return'
p417
F133.1125099658966
tp418
a(S'return'
p419
F133.64593887329102
tp420
a(S'return'
p421
F134.17921090126038
tp422
a(S'return'
p423
F134.7125368118286
tp424
a(S'return'
p425
F135.24587082862854
tp426
a(S'return'
p427
F135.53603792190552
tp428
a(S'return'
p429
F136.08006191253662
tp430
a(S'return'
p431
F136.57604479789734
tp432
a(S'return'
p433
F137.06227588653564
tp434
a(S'return'
p435
F137.59560298919678
tp436
a(S'return'
p437
F138.06403994560242
tp438
a(S'return'
p439
F138.52803587913513
tp440
a(S'return'
p441
F139.0000410079956
tp442
a(S'return'
p443
F139.54403400421143
tp444
a(S'return'
p445
F140.04587388038635
tp446
a(S'return'
p447
F140.57914280891418
tp448
a(S'return'
p449
F141.1124348640442
tp450
a(S'return'
p451
F141.64580988883972
tp452
a(S'return'
p453
F141.94403791427612
tp454
a(S'return'
p455
F142.42404294013977
tp456
a(S'return'
p457
F142.9040389060974
tp458
a(S'return'
p459
F143.3840308189392
tp460
a(S'return'
p461
F143.81603598594666
tp462
a(S'return'
p463
F144.31239485740662
tp464
a(S'return'
p465
F144.8458228111267
tp466
a(S'return'
p467
F145.37906289100647
tp468
a(S'return'
p469
F145.91238498687744
tp470
a(S'return'
p471
F146.4457528591156
tp472
a(S'return'
p473
F146.97904181480408
tp474
a(S'return'
p475
F147.5123999118805
tp476
a(S'return'
p477
F148.04572892189026
tp478
a(S'return'
p479
F148.57912182807922
tp480
a(S'return'
p481
F149.11239385604858
tp482
a(S'return'
p483
F149.6457278728485
tp484
a(S'return'
p485
F149.92804098129272
tp486
a(S'return'
p487
F150.40803980827332
tp488
a(S'return'
p489
F150.92911791801453
tp490
a(S'return'
p491
F151.34404683113098
tp492
a(S'return'
p493
F151.84005284309387
tp494
a(S'return'
p495
F152.33605098724365
tp496
a(S'return'
p497
F152.84574484825134
tp498
a(S'return'
p499
F153.37897896766663
tp500
a(S'return'
p501
F153.91230297088623
tp502
a(S'return'
p503
F154.44568300247192
tp504
a(S'return'
p505
F154.7440459728241
tp506
a(S'return'
p507
F155.2240388393402
tp508
a(S'return'
p509
F155.68004393577576
tp510
a(S'return'
p511
F156.1760449409485
tp512
a(S'return'
p513
F156.67205286026
tp514
a(S'return'
p515
F157.1520619392395
tp516
a(S'return'
p517
F157.6456480026245
tp518
assS'D'
p519
(dp520
g135
(lp521
F358.61234188079834
aF359.276704788208
aF359.91024589538574
aF360.57690501213074
aF361.2433409690857
aF361.8768889904022
aF362.54354786872864
aF363.21001291275024
aF363.84353590011597
aF364.51023292541504
aF365.17664098739624
aF365.8101918697357
aF366.4768259525299
aF367.14328479766846
aF367.7768819332123
aF368.44347500801086
aF369.1099359989166
aF369.743460893631
aF370.4101848602295
aF371.0765998363495
aF371.71034693717957
aF372.37676787376404
aF373.0432379245758
aF373.6767578125
aF374.34342193603516
aF375.0098729133606
aF375.6434078216553
aF376.31012201309204
aF376.97652888298035
aF377.61005783081055
aF378.2767119407654
aF378.9431748390198
aF379.5769188404083
aF380.2433648109436
aF380.90983295440674
aF381.5433437824249
aF382.2100598812103
aF382.8764657974243
aF383.51000595092773
aF384.1766519546509
aF384.84311389923096
aF385.4767098426819
aF386.1432988643646
aF386.8097608089447
aF387.44328689575195
aF388.11000394821167
asg137
(lp522
(S'space'
p523
F355.7943298816681
tp524
a(S'space'
p525
F360.0801148414612
tp526
a(S'space'
p527
F361.6769368648529
tp528
a(S'space'
p529
F362.9201588630676
tp530
a(S'space'
p531
F363.9521379470825
tp532
a(S'space'
p533
F365.024130821228
tp534
a(S'space'
p535
F366.0401358604431
tp536
a(S'space'
p537
F366.880126953125
tp538
a(S'space'
p539
F367.9361228942871
tp540
a(S'space'
p541
F369.0641129016876
tp542
a(S'space'
p543
F369.92012786865234
tp544
a(S'space'
p545
F370.9201159477234
tp546
a(S'space'
p547
F371.51042890548706
tp548
a(S'space'
p549
F372.1848030090332
tp550
a(S'space'
p551
F373.47684693336487
tp552
a(S'space'
p553
F375.12812781333923
tp554
a(S'space'
p555
F376.2723898887634
tp556
a(S'space'
p557
F376.9204409122467
tp558
a(S'space'
p559
F377.64323592185974
tp560
a(S'space'
p561
F378.432110786438
tp562
a(S'space'
p563
F379.3769679069519
tp564
a(S'space'
p565
F379.8004570007324
tp566
a(S'space'
p567
F380.72012591362
tp568
a(S'space'
p569
F381.3444709777832
tp570
a(S'space'
p571
F382.50440788269043
tp572
a(S'space'
p573
F383.3100907802582
tp574
a(S'space'
p575
F384.12813091278076
tp576
a(S'space'
p577
F385.2768018245697
tp578
a(S'space'
p579
F386.1361768245697
tp580
a(S'space'
p581
F387.2433488368988
tp582
asg199
(lp583
(S'right'
p584
F358.9923269748688
tp585
a(S'left'
p586
F359.2721438407898
tp587
a(S'right'
p588
F359.7103238105774
tp589
a(S'right'
p590
F360.8641529083252
tp591
a(S'right'
p592
F362.1269118785858
tp593
a(S'left'
p594
F363.643581867218
tp595
a(S'left'
p596
F364.4161138534546
tp597
a(S'right'
p598
F365.6102759838104
tp599
a(S'left'
p600
F366.38412594795227
tp601
a(S'right'
p602
F367.2561140060425
tp603
a(S'right'
p604
F368.39211201667786
tp605
a(S'left'
p606
F368.5041608810425
tp607
a(S'right'
p608
F369.54351592063904
tp609
a(S'left'
p610
F370.2103228569031
tp611
a(S'right'
p612
F370.8161299228668
tp613
a(S'left'
p614
F371.5104968547821
tp615
a(S'right'
p616
F372.1847310066223
tp617
a(S'left'
p618
F372.8321268558502
tp619
a(S'right'
p620
F374.143474817276
tp621
a(S'left'
p622
F374.5121388435364
tp623
a(S'right'
p624
F375.6241228580475
tp625
a(S'left'
p626
F376.2724359035492
tp627
a(S'right'
p628
F376.9203929901123
tp629
a(S'left'
p630
F377.6432809829712
tp631
a(S'right'
p632
F378.36011695861816
tp633
a(S'left'
p634
F378.9761378765106
tp635
a(S'right'
p636
F379.80040979385376
tp637
a(S'left'
p638
F380.52811789512634
tp639
a(S'right'
p640
F381.3444218635559
tp641
a(S'left'
p642
F382.5044529438019
tp643
a(S'right'
p644
F383.592120885849
tp645
a(S'left'
p646
F384.6081509590149
tp647
a(S'right'
p648
F385.440123796463
tp649
a(S'right'
p650
F386.4561378955841
tp651
a(S'right'
p652
F387.3041169643402
tp653
a(S'left'
p654
F387.95214200019836
tp655
asg237
(lp656
F358.9433789253235
aF359.9267189502716
aF360.9100248813629
aF361.89338088035583
aF362.8766679763794
aF363.860013961792
aF364.8433198928833
aF365.82666301727295
aF366.80996799468994
aF367.79332280158997
aF368.7766098976135
aF369.75995683670044
aF370.7433178424835
aF371.72660279273987
aF372.7099139690399
aF373.69322991371155
aF374.6765568256378
aF375.6598927974701
aF376.64320397377014
aF377.6265358924866
aF378.60985684394836
aF379.5932059288025
aF380.576495885849
aF381.5598359107971
aF382.54314279556274
aF383.52648091316223
aF384.5097918510437
aF385.4931688308716
aF386.47648191452026
aF387.45997285842896
asssS'LH'
p657
(dp658
g3
(dp659
g5
(lp660
F286.96077585220337
aF287.49410700798035
aF288.02740001678467
aF288.5607249736786
aF289.09408688545227
aF289.6273798942566
aF290.1607098579407
aF290.69406485557556
aF291.2273738384247
aF291.7607378959656
aF292.29402589797974
aF292.82735800743103
aF293.3606779575348
aF293.8940107822418
aF294.4273347854614
aF294.9606637954712
aF295.49420189857483
aF296.02731800079346
aF296.5606520175934
aF297.0939757823944
aF297.627299785614
aF298.1606287956238
aF298.6939618587494
aF299.227285861969
aF299.7606129646301
aF300.29394578933716
aF300.82727098464966
aF301.36060094833374
aF301.89393496513367
aF302.4272608757019
aF302.9605848789215
aF303.4941248893738
aF304.0272397994995
aF304.56056690216064
aF305.09389996528625
aF305.62722182273865
aF306.1605489253998
aF306.6939148902893
aF307.22720885276794
aF307.76053380966187
aF308.2938678264618
aF308.82719588279724
aF309.3605229854584
aF309.8938488960266
aF310.42717385292053
aF310.96050786972046
aF311.4940369129181
aF312.02716588974
aF312.56048583984375
aF313.093820810318
aF313.62713980674744
aF314.16047286987305
aF314.69380283355713
aF315.22712683677673
aF315.7604548931122
aF316.2937879562378
aF316.8271119594574
aF317.3604438304901
aF317.89377188682556
aF318.42729687690735
asg7
(lp661
(S'd'
p662
F286.9362688064575
tp663
a(S'a'
p664
F287.4481749534607
tp665
a(S'd'
p666
F288.0081160068512
tp667
a(S'a'
p668
F288.48810601234436
tp669
a(S'd'
p670
F288.9840958118439
tp671
a(S'a'
p672
F289.5441048145294
tp673
a(S'd'
p674
F290.040100812912
tp675
a(S'a'
p676
F290.57609486579895
tp677
a(S'd'
p678
F291.13613986968994
tp679
a(S'a'
p680
F291.7361488342285
tp681
a(S'd'
p682
F292.3122458457947
tp683
a(S'a'
p684
F292.8481729030609
tp685
a(S'd'
p686
F293.67763900756836
tp687
a(S'a'
p688
F293.96811389923096
tp689
a(S'd'
p690
F294.4481029510498
tp691
a(S'a'
p692
F294.8800919055939
tp693
a(S'd'
p694
F295.46409797668457
tp695
a(S'a'
p696
F295.8960988521576
tp697
a(S'd'
p698
F296.5361399650574
tp699
a(S'a'
p700
F297.09628891944885
tp701
a(S'd'
p702
F297.6961109638214
tp703
a(S'a'
p704
F298.2080969810486
tp705
a(S'd'
p706
F298.7121078968048
tp707
a(S'a'
p708
F299.2080879211426
tp709
a(S'd'
p710
F299.76827692985535
tp711
a(S'a'
p712
F300.25610089302063
tp713
a(S'd'
p714
F300.86415791511536
tp715
a(S'a'
p716
F301.3121018409729
tp717
a(S'd'
p718
F301.8161358833313
tp719
a(S'a'
p720
F302.27215695381165
tp721
a(S'd'
p722
F302.8321177959442
tp723
a(S'a'
p724
F303.27754187583923
tp725
a(S'd'
p726
F303.84812092781067
tp727
a(S'a'
p728
F304.46410179138184
tp729
a(S'd'
p730
F305.0641088485718
tp731
a(S'a'
p732
F305.5760979652405
tp733
a(S'd'
p734
F306.1361038684845
tp735
a(S'a'
p736
F306.59210681915283
tp737
a(S'd'
p738
F307.152126789093
tp739
a(S'a'
p740
F307.6321129798889
tp741
a(S'd'
p742
F308.23209595680237
tp743
a(S'a'
p744
F308.68810081481934
tp745
a(S'd'
p746
F309.2881109714508
tp747
a(S'a'
p748
F309.90411496162415
tp749
a(S'd'
p750
F310.4801118373871
tp751
a(S'a'
p752
F311.016135931015
tp753
a(S'd'
p754
F311.5761249065399
tp755
a(S'a'
p756
F312.1121258735657
tp757
a(S'd'
p758
F312.87744879722595
tp759
a(S'a'
p760
F313.1681067943573
tp761
a(S'd'
p762
F313.9440658092499
tp763
a(S'a'
p764
F314.4774258136749
tp765
a(S'd'
p766
F314.78411197662354
tp767
a(S'a'
p768
F315.24010586738586
tp769
a(S'd'
p770
F315.8000998497009
tp771
a(S'a'
p772
F316.2938799858093
tp773
a(S'd'
p774
F316.71208095550537
tp775
a(S'a'
p776
F317.2881238460541
tp777
a(S'd'
p778
F317.8938670158386
tp779
a(S'a'
p780
F318.4080948829651
tp781
a(S'd'
p782
F318.8881108760834
tp783
assg133
(dp784
g135
(lp785
F527.6106569766998
aF528.2750399112701
aF528.9085659980774
aF529.5752279758453
aF530.2416977882385
aF530.8752069473267
aF531.5419278144836
aF532.2083358764648
aF532.8418679237366
aF533.50852394104
aF534.1749730110168
aF534.8084938526154
aF535.475154876709
aF536.1416289806366
aF536.7752168178558
aF537.441862821579
aF538.108274936676
aF538.7417938709259
aF539.4084568023682
aF540.0749249458313
aF540.7084407806396
aF541.3750958442688
aF542.0415768623352
aF542.6751549243927
aF543.3417568206787
aF544.0082199573517
aF544.6417589187622
aF545.3083839416504
aF545.9748558998108
aF546.6083858013153
aF547.2750480175018
aF547.9415049552917
aF548.5750479698181
aF549.2417058944702
aF549.9081478118896
aF550.5416789054871
aF551.2083418369293
aF551.8748049736023
aF552.5083270072937
aF553.1750559806824
aF553.8414578437805
aF554.4749798774719
aF555.1416308879852
aF555.8080987930298
aF556.4416298866272
aF557.1082689762115
asg137
(lp786
(S'return'
p787
F528.2918088436127
tp788
a(S'return'
p789
F529.1203238964081
tp790
a(S'return'
p791
F530.0003228187561
tp792
a(S'return'
p793
F531.0563259124756
tp794
a(S'return'
p795
F531.8244059085846
tp796
a(S'return'
p797
F532.6420078277588
tp798
a(S'return'
p799
F533.3086218833923
tp800
a(S'return'
p801
F534.0083508491516
tp802
a(S'return'
p803
F534.8723149299622
tp804
a(S'return'
p805
F535.6487138271332
tp806
a(S'return'
p807
F536.5752999782562
tp808
a(S'return'
p809
F537.5923068523407
tp810
a(S'return'
p811
F539.2085139751434
tp812
a(S'return'
p813
F540.1123259067535
tp814
a(S'return'
p815
F541.1751530170441
tp816
a(S'return'
p817
F541.81636095047
tp818
a(S'return'
p819
F542.6643168926239
tp820
a(S'return'
p821
F543.5843567848206
tp822
a(S'return'
p823
F544.5607278347015
tp824
a(S'return'
p825
F545.5123209953308
tp826
a(S'return'
p827
F546.4407680034637
tp828
a(S'return'
p829
F547.5927758216858
tp830
a(S'return'
p831
F548.744323015213
tp832
a(S'return'
p833
F549.8403289318085
tp834
a(S'return'
p835
F550.656329870224
tp836
a(S'return'
p837
F551.5604288578033
tp838
a(S'return'
p839
F552.7043578624725
tp840
a(S'return'
p841
F553.4248328208923
tp842
a(S'return'
p843
F554.5847659111023
tp844
a(S'return'
p845
F555.4247238636017
tp846
a(S'return'
p847
F556.2727718353271
tp848
asg199
(lp849
(S'd'
p850
F530.6883268356323
tp851
a(S'a'
p852
F531.6003258228302
tp853
a(S'd'
p854
F532.360319852829
tp855
a(S'a'
p856
F533.3085749149323
tp857
a(S'd'
p858
F533.8583598136902
tp859
a(S'a'
p860
F534.7763378620148
tp861
a(S'd'
p862
F535.6487607955933
tp863
a(S'a'
p864
F536.7916688919067
tp865
a(S'd'
p866
F539.6643228530884
tp867
a(S'a'
p868
F540.7249639034271
tp869
a(S'd'
p870
F541.6563320159912
tp871
a(S'a'
p872
F542.5683329105377
tp873
a(S'd'
p874
F543.5283269882202
tp875
a(S'a'
p876
F544.5607748031616
tp877
a(S'd'
p878
F545.4403309822083
tp879
a(S'a'
p880
F546.4407198429108
tp881
a(S'd'
p882
F547.5927288532257
tp883
a(S'a'
p884
F549.456328868866
tp885
a(S'd'
p886
F550.4323329925537
tp887
a(S'a'
p888
F551.3843138217926
tp889
a(S'd'
p890
F552.6083359718323
tp891
a(S'a'
p892
F553.424763917923
tp893
a(S'a'
p894
F554.5847189426422
tp895
a(S'd'
p896
F555.4247698783875
tp897
a(S'a'
p898
F556.2727248668671
tp899
asg237
(lp900
F527.9417109489441
aF528.9250469207764
aF529.9083499908447
aF530.8916959762573
aF531.875002861023
aF532.8583419322968
aF533.8416550159454
aF534.8249878883362
aF535.8082959651947
aF536.7916929721832
aF537.7749400138855
aF538.7582879066467
aF539.7415919303894
aF540.7249867916107
aF541.7082378864288
aF542.6915547847748
aF543.6748919487
aF544.6582248210907
aF545.6415278911591
aF546.624871969223
aF547.608179807663
aF548.5915188789368
aF549.574826002121
aF550.5582389831543
aF551.5414688587189
aF552.5248148441315
aF553.5081689357758
aF554.4914619922638
aF555.4747729301453
aF556.4583568572998
assg239
(dp901
g135
(lp902
F628.8929607868195
aF629.5573627948761
aF630.1909070014954
aF630.8575727939606
aF631.5240240097046
aF632.1575329303741
aF632.8241939544678
aF633.4906659126282
aF634.1241998672485
aF634.7909169197083
aF635.4573149681091
aF636.090824842453
aF636.7575190067291
aF637.4239540100098
aF638.0574958324432
aF638.7241559028625
aF639.3908078670502
aF640.0241138935089
aF640.6908450126648
aF641.3572459220886
aF641.9907779693604
aF642.6574540138245
aF643.3239049911499
aF643.9574308395386
aF644.6241037845612
aF645.290549993515
aF645.9240698814392
aF646.5908019542694
aF647.2574098110199
aF647.8907239437103
aF648.5573878288269
aF649.2238328456879
aF649.8573749065399
aF650.5240218639374
aF651.1904850006104
aF651.8240208625793
aF652.4907360076904
aF653.1571359634399
aF653.7906649112701
aF654.4573328495026
aF655.1237738132477
aF655.7573108673096
aF656.4239678382874
aF657.0904359817505
aF657.7239618301392
aF658.3906729221344
asg137
(lp903
(S'return'
p904
F632.0803399085999
tp905
a(S'return'
p906
F632.8643507957458
tp907
a(S'return'
p908
F633.5073800086975
tp909
a(S'return'
p910
F637.1683619022369
tp911
a(S'return'
p912
F637.9443588256836
tp913
a(S'return'
p914
F638.5242929458618
tp915
a(S'return'
p916
F639.4073209762573
tp917
a(S'return'
p918
F640.1203989982605
tp919
a(S'return'
p920
F640.584764957428
tp921
a(S'return'
p922
F641.7908389568329
tp923
a(S'return'
p924
F642.4576008319855
tp925
a(S'return'
p926
F642.8906629085541
tp927
a(S'return'
p928
F643.4487719535828
tp929
a(S'return'
p930
F644.4242558479309
tp931
a(S'return'
p932
F644.8327629566193
tp933
a(S'return'
p934
F645.724179983139
tp935
a(S'return'
p936
F646.0963590145111
tp937
a(S'return'
p938
F646.7448079586029
tp939
a(S'return'
p940
F647.3287599086761
tp941
a(S'return'
p942
F647.9927988052368
tp943
a(S'return'
p944
F648.592756986618
tp945
a(S'return'
p946
F649.1528098583221
tp947
a(S'return'
p948
F649.8967969417572
tp949
a(S'return'
p950
F650.8004078865051
tp951
a(S'return'
p952
F651.62415599823
tp953
a(S'return'
p954
F653.0643730163574
tp955
a(S'return'
p956
F655.800402879715
tp957
a(S'return'
p958
F656.2723608016968
tp959
a(S'return'
p960
F656.773845911026
tp961
a(S'return'
p962
F657.5604069232941
tp963
a(S'return'
p964
F658.2323548793793
tp965
asg199
(lp966
(S'a'
p967
F629.2883868217468
tp968
a(S'd'
p969
F629.600350856781
tp970
a(S'a'
p971
F629.9909889698029
tp972
a(S'd'
p973
F630.6576519012451
tp974
a(S'a'
p975
F630.9523568153381
tp976
a(S'd'
p977
F631.5123479366302
tp978
a(S'a'
p979
F632.768364906311
tp980
a(S'd'
p981
F633.5074269771576
tp982
a(S'a'
p983
F633.9242458343506
tp984
a(S'd'
p985
F634.5910048484802
tp986
a(S'a'
p987
F635.0323917865753
tp988
a(S'd'
p989
F635.4883530139923
tp990
a(S'a'
p991
F636.107353925705
tp992
a(S'd'
p993
F636.5843658447266
tp994
a(S'a'
p995
F637.8575758934021
tp996
a(S'd'
p997
F638.2563548088074
tp998
a(S'a'
p999
F638.8403649330139
tp1000
a(S'd'
p1001
F639.4483568668365
tp1002
a(S'a'
p1003
F639.9523649215698
tp1004
a(S'd'
p1005
F640.5848109722137
tp1006
a(S'a'
p1007
F641.2003679275513
tp1008
a(S'd'
p1009
F641.9363648891449
tp1010
a(S'd'
p1011
F642.4575297832489
tp1012
a(S'a'
p1013
F642.890615940094
tp1014
a(S'd'
p1015
F643.4488189220428
tp1016
a(S'a'
p1017
F644.4241847991943
tp1018
a(S'd'
p1019
F644.8328099250793
tp1020
a(S'a'
p1021
F645.724133014679
tp1022
a(S'd'
p1023
F646.152349948883
tp1024
a(S'a'
p1025
F646.7447597980499
tp1026
a(S'd'
p1027
F647.3288068771362
tp1028
a(S'a'
p1029
F647.9927518367767
tp1030
a(S'd'
p1031
F648.5928039550781
tp1032
a(S'a'
p1033
F649.1527628898621
tp1034
a(S'd'
p1035
F649.8968679904938
tp1036
a(S'a'
p1037
F650.5923569202423
tp1038
a(S'd'
p1039
F651.6240758895874
tp1040
a(S'a'
p1041
F652.016471862793
tp1042
a(S'd'
p1043
F652.4003729820251
tp1044
a(S'a'
p1045
F653.328370809555
tp1046
a(S'd'
p1047
F653.5907499790192
tp1048
a(S'a'
p1049
F654.7123680114746
tp1050
a(S'd'
p1051
F655.0483598709106
tp1052
a(S'a'
p1053
F655.5843739509583
tp1054
a(S'd'
p1055
F656.2240259647369
tp1056
a(S'a'
p1057
F656.7739160060883
tp1058
a(S'd'
p1059
F657.524041891098
tp1060
a(S'a'
p1061
F658.190759897232
tp1062
asg237
(lp1063
F629.22403383255
aF630.2073810100555
aF631.1906909942627
aF632.1742768287659
aF633.1573388576508
aF634.1406488418579
aF635.1239759922028
aF636.1073780059814
aF637.0906348228455
aF638.0739479064941
aF639.0572688579559
aF640.0406148433685
aF641.023922920227
aF642.0072648525238
aF642.9905638694763
aF643.9739308357239
aF644.9572148323059
aF645.9405589103699
aF646.9238657951355
aF647.907203912735
aF648.8905189037323
aF649.8738698959351
aF650.857165813446
aF651.8405079841614
aF652.8238079547882
aF653.8071467876434
aF654.790454864502
aF655.7738130092621
aF656.757120847702
aF657.7404408454895
assg385
(dp1064
g5
(lp1065
F175.67858386039734
aF176.21183681488037
aF176.74516081809998
aF177.27848482131958
aF177.81181287765503
aF178.34514379501343
aF178.87846684455872
aF179.41179585456848
aF179.94512701034546
aF180.4784529209137
aF181.0117847919464
aF181.54531383514404
aF182.078449010849
aF182.61177587509155
aF183.14510679244995
aF183.67842292785645
aF184.211749792099
aF184.7450749874115
aF185.27840399742126
aF185.81173181533813
aF186.3450608253479
aF186.87838983535767
aF187.41171979904175
aF187.94504690170288
aF188.4785749912262
aF189.01170182228088
aF189.54502892494202
aF190.0783588886261
aF190.61168479919434
aF191.14501285552979
aF191.67834091186523
aF192.21167087554932
aF192.74499678611755
aF193.278324842453
aF193.81165289878845
aF194.3449809551239
aF194.87830996513367
aF195.41184091567993
aF195.94496488571167
aF196.47829484939575
aF197.01162195205688
aF197.54495286941528
aF198.0782778263092
aF198.61160397529602
aF199.14493489265442
aF199.67826294898987
aF200.21159100532532
aF200.74491786956787
aF201.27824687957764
aF201.8115749359131
aF202.3451099395752
aF202.87823390960693
aF203.41155791282654
aF203.9448869228363
aF204.47821593284607
aF205.01154494285583
aF205.5448718070984
aF206.07819986343384
aF206.6115279197693
aF207.14485478401184
asg7
(lp1066
(S'space'
p1067
F175.99548983573914
tp1068
a(S'space'
p1069
F176.52879285812378
tp1070
a(S'space'
p1071
F177.06212496757507
tp1072
a(S'space'
p1073
F177.37608790397644
tp1074
a(S'space'
p1075
F177.89606499671936
tp1076
a(S'space'
p1077
F178.37605786323547
tp1078
a(S'space'
p1079
F178.87852883338928
tp1080
a(S'space'
p1081
F179.3680558204651
tp1082
a(S'space'
p1083
F179.88805985450745
tp1084
a(S'space'
p1085
F180.4240620136261
tp1086
a(S'space'
p1087
F180.94408178329468
tp1088
a(S'space'
p1089
F181.4400658607483
tp1090
a(S'space'
p1091
F182.01610684394836
tp1092
a(S'space'
p1093
F182.5120668411255
tp1094
a(S'space'
p1095
F183.07206082344055
tp1096
a(S'space'
p1097
F183.55206394195557
tp1098
a(S'space'
p1099
F184.07206201553345
tp1100
a(S'space'
p1101
F184.70405793190002
tp1102
a(S'space'
p1103
F185.1440498828888
tp1104
a(S'space'
p1105
F185.74404788017273
tp1106
a(S'space'
p1107
F186.24005889892578
tp1108
a(S'space'
p1109
F186.73606181144714
tp1110
a(S'space'
p1111
F187.32005500793457
tp1112
a(S'space'
p1113
F187.91207098960876
tp1114
a(S'space'
p1115
F188.3360629081726
tp1116
a(S'space'
p1117
F188.99205589294434
tp1118
a(S'space'
p1119
F189.51204681396484
tp1120
a(S'space'
p1121
F190.07841992378235
tp1122
a(S'space'
p1123
F190.58404898643494
tp1124
a(S'space'
p1125
F191.16008281707764
tp1126
a(S'space'
p1127
F191.72006392478943
tp1128
a(S'space'
p1129
F192.24005389213562
tp1130
a(S'space'
p1131
F192.76006388664246
tp1132
a(S'space'
p1133
F193.3760747909546
tp1134
a(S'space'
p1135
F194.12861680984497
tp1136
a(S'space'
p1137
F194.6619529724121
tp1138
a(S'space'
p1139
F195.19523286819458
tp1140
a(S'space'
p1141
F195.72856187820435
tp1142
a(S'space'
p1143
F196.26193499565125
tp1144
a(S'space'
p1145
F196.79525780677795
tp1146
a(S'space'
p1147
F197.328547000885
tp1148
a(S'space'
p1149
F197.86191201210022
tp1150
a(S'space'
p1151
F198.17606782913208
tp1152
a(S'space'
p1153
F198.92853379249573
tp1154
a(S'space'
p1155
F199.46189785003662
tp1156
a(S'space'
p1157
F199.99519181251526
tp1158
a(S'space'
p1159
F200.2880539894104
tp1160
a(S'space'
p1161
F200.8080599308014
tp1162
a(S'space'
p1163
F201.34407496452332
tp1164
a(S'space'
p1165
F201.82423186302185
tp1166
a(S'space'
p1167
F202.40005588531494
tp1168
a(S'space'
p1169
F202.96005487442017
tp1170
a(S'space'
p1171
F203.49606490135193
tp1172
a(S'space'
p1173
F204.26185178756714
tp1174
a(S'space'
p1175
F204.79517889022827
tp1176
a(S'space'
p1177
F205.32846999168396
tp1178
a(S'space'
p1179
F205.861829996109
tp1180
a(S'space'
p1181
F206.3951599597931
tp1182
a(S'space'
p1183
F206.92845392227173
tp1184
a(S'space'
p1185
F207.4618148803711
tp1186
assg519
(dp1187
g135
(lp1188
F411.04513788223267
aF411.70952892303467
aF412.34305691719055
aF413.009724855423
aF413.6761658191681
aF414.30969285964966
aF414.9763460159302
aF415.64282393455505
aF416.2763547897339
aF416.9430658817291
aF417.60945892333984
aF418.24299597740173
aF418.90966296195984
aF419.5761048793793
aF420.2096519470215
aF420.87629890441895
aF421.54281282424927
aF422.1762897968292
aF422.8430109024048
aF423.5094139575958
aF424.14293384552
aF424.8095989227295
aF425.4760558605194
aF426.1095960140228
aF426.77630281448364
aF427.44269490242004
aF428.0762269496918
aF428.7429428100586
aF429.4093418121338
aF430.0428729057312
aF430.7095408439636
aF431.3762118816376
aF432.009526014328
aF432.6761848926544
aF433.34263586997986
aF433.9761769771576
aF434.64287996292114
aF435.30929589271545
aF435.94281101226807
aF436.60948395729065
aF437.2759368419647
aF437.90946793556213
aF438.57612586021423
aF439.24258685112
aF439.8761179447174
aF440.5428378582001
asg137
(lp1189
(S'return'
p1190
F411.39297580718994
tp1191
a(S'return'
p1192
F412.2243139743805
tp1193
a(S'return'
p1194
F412.8098158836365
tp1195
a(S'return'
p1196
F413.52026891708374
tp1197
a(S'return'
p1198
F414.23228788375854
tp1199
a(S'return'
p1200
F414.8802738189697
tp1201
a(S'return'
p1202
F415.6595358848572
tp1203
a(S'return'
p1204
F416.743145942688
tp1205
a(S'return'
p1206
F417.19228196144104
tp1207
a(S'return'
p1208
F418.0431299209595
tp1209
a(S'return'
p1210
F418.47227787971497
tp1211
a(S'return'
p1212
F419.024276971817
tp1213
a(S'return'
p1214
F420.009733915329
tp1215
a(S'return'
p1216
F420.67638778686523
tp1217
a(S'return'
p1218
F421.06472086906433
tp1219
a(S'return'
p1220
F421.7207260131836
tp1221
a(S'return'
p1222
F422.29667687416077
tp1223
a(S'return'
p1224
F422.8807189464569
tp1225
a(S'return'
p1226
F424.03227400779724
tp1227
a(S'return'
p1228
F425.12827801704407
tp1229
a(S'return'
p1230
F425.90974497795105
tp1231
a(S'return'
p1232
F426.3122799396515
tp1233
a(S'return'
p1234
F430.66432785987854
tp1235
a(S'return'
p1236
F431.8096168041229
tp1237
a(S'return'
p1238
F432.5042748451233
tp1239
a(S'return'
p1240
F433.3687219619751
tp1241
a(S'return'
p1242
F434.6242837905884
tp1243
a(S'return'
p1244
F435.9362759590149
tp1245
a(S'return'
p1246
F437.1522879600525
tp1247
a(S'return'
p1248
F438.3762159347534
tp1249
a(S'return'
p1250
F438.8482928276062
tp1251
a(S'return'
p1252
F439.85627579689026
tp1253
asg199
(lp1254
(S'd'
p1255
F411.392924785614
tp1256
a(S'a'
p1257
F412.14310598373413
tp1258
a(S'd'
p1259
F412.96827578544617
tp1260
a(S'a'
p1261
F413.7123248577118
tp1262
a(S'd'
p1263
F414.44026494026184
tp1264
a(S'a'
p1265
F415.19228291511536
tp1266
a(S'd'
p1267
F416.0764319896698
tp1268
a(S'a'
p1269
F417.09627199172974
tp1270
a(S'd'
p1271
F418.04304790496826
tp1272
a(S'a'
p1273
F418.709743976593
tp1274
a(S'd'
p1275
F419.1442768573761
tp1276
a(S'a'
p1277
F420.00980401039124
tp1278
a(S'd'
p1279
F420.6764588356018
tp1280
a(S'a'
p1281
F421.06467390060425
tp1282
a(S'd'
p1283
F421.72067880630493
tp1284
a(S'a'
p1285
F422.29672479629517
tp1286
a(S'd'
p1287
F422.8806719779968
tp1288
a(S'a'
p1289
F423.60831689834595
tp1290
a(S'd'
p1291
F424.609680891037
tp1292
a(S'a'
p1293
F425.2083218097687
tp1294
a(S'd'
p1295
F425.9096739292145
tp1296
a(S'a'
p1297
F426.57643389701843
tp1298
a(S'd'
p1299
F427.00944900512695
tp1300
a(S'a'
p1301
F427.87628388404846
tp1302
a(S'd'
p1303
F428.28028178215027
tp1304
a(S'a'
p1305
F428.71227979660034
tp1306
a(S'd'
p1307
F429.3123288154602
tp1308
a(S'a'
p1309
F429.8642838001251
tp1310
a(S'd'
p1311
F430.50962495803833
tp1312
a(S'a'
p1313
F431.25628685951233
tp1314
a(S'd'
p1315
F431.8096868991852
tp1316
a(S'd'
p1317
F432.4762690067291
tp1318
a(S'a'
p1319
F432.80028796195984
tp1320
a(S'd'
p1321
F433.3686738014221
tp1322
a(S'a'
p1323
F433.9930348396301
tp1324
a(S'd'
p1325
F434.5762748718262
tp1326
a(S'a'
p1327
F435.2802858352661
tp1328
a(S'd'
p1329
F435.8642818927765
tp1330
a(S'a'
p1331
F436.632287979126
tp1332
a(S'd'
p1333
F437.0962769985199
tp1334
a(S'a'
p1335
F437.82427978515625
tp1336
a(S'd'
p1337
F438.4642629623413
tp1338
a(S'a'
p1339
F439.3362898826599
tp1340
a(S'd'
p1341
F440.3429129123688
tp1342
asg237
(lp1343
F411.37619280815125
aF412.36224699020386
aF413.34283781051636
aF414.32621693611145
aF415.3094937801361
aF416.29304790496826
aF417.27613592147827
aF418.2594749927521
aF419.24277091026306
aF420.2261278629303
aF421.20943999290466
aF422.1927788257599
aF423.17607378959656
aF424.1596369743347
aF425.1427118778229
aF426.12609791755676
aF427.10937690734863
aF428.09271001815796
aF429.0760178565979
aF430.05935883522034
aF431.04265785217285
aF432.0260260105133
aF433.0093197822571
aF433.9926269054413
aF434.97596192359924
aF435.95930099487305
aF436.94260692596436
aF437.9259629249573
aF438.9092528820038
aF439.89259481430054
asss.