(dp0
S'RH'
p1
(dp2
S'A'
p3
(dp4
S'S'
p5
(lp6
F395.4190499782562
aF395.95252990722656
aF396.4858829975128
aF397.019180059433
aF397.55233907699585
aF398.0858950614929
aF398.61917901039124
aF399.1524980068207
aF399.6858229637146
aF400.21925687789917
aF400.75248885154724
aF401.28580498695374
aF401.8191258907318
aF402.3524079322815
aF402.8858048915863
aF403.4189898967743
aF403.95245599746704
aF404.48578691482544
aF405.0191059112549
aF405.55240988731384
aF406.0857779979706
aF406.61913990974426
aF407.15243101119995
aF407.68577003479004
aF408.21912002563477
aF408.7524240016937
aF409.28575897216797
aF409.81910395622253
aF410.35235595703125
aF410.8857500553131
aF411.4191038608551
aF411.95240902900696
aF412.4855909347534
aF413.0190849304199
aF413.5522348880768
aF414.0857398509979
aF414.6190619468689
aF415.15239000320435
aF415.68571496009827
aF416.21906995773315
aF416.7523760795593
aF417.2857060432434
aF417.81903886795044
aF418.35228395462036
aF418.88568687438965
aF419.41905093193054
aF419.95234203338623
aF420.48553800582886
aF421.01903104782104
aF421.5521819591522
aF422.0856750011444
aF422.6190218925476
aF423.1523370742798
aF423.6856610774994
aF424.21901392936707
aF424.7523100376129
aF425.28565406799316
aF425.81910395622253
aF426.35220289230347
aF426.88561487197876
asS'M'
p7
(lp8
(S'right'
p9
F395.8731460571289
tp10
a(S'right'
p11
F396.2695450782776
tp12
a(S'right'
p13
F397.64106702804565
tp14
a(S'left'
p15
F397.8694188594818
tp16
a(S'right'
p17
F398.4650800228119
tp18
a(S'left'
p19
F398.9850368499756
tp20
a(S'right'
p21
F399.4695508480072
tp22
a(S'left'
p23
F400.00266289711
tp24
a(S'right'
p25
F400.5370628833771
tp26
a(S'left'
p27
F401.09703302383423
tp28
a(S'right'
p29
F401.6170120239258
tp30
a(S'left'
p31
F402.22506284713745
tp32
a(S'right'
p33
F402.7369899749756
tp34
a(S'left'
p35
F403.2169859409332
tp36
a(S'right'
p37
F403.76097202301025
tp38
a(S'left'
p39
F404.31301188468933
tp40
a(S'right'
p41
F404.8969888687134
tp42
a(S'left'
p43
F405.44895005226135
tp44
a(S'right'
p45
F405.9849810600281
tp46
a(S'left'
p47
F406.4729850292206
tp48
a(S'right'
p49
F406.9609639644623
tp50
a(S'left'
p51
F407.52097392082214
tp52
a(S'right'
p53
F408.0329599380493
tp54
a(S'left'
p55
F408.584951877594
tp56
a(S'right'
p57
F409.1289849281311
tp58
a(S'left'
p59
F409.6028220653534
tp60
a(S'right'
p61
F410.13609886169434
tp62
a(S'left'
p63
F410.6733078956604
tp64
a(S'right'
p65
F411.20280385017395
tp66
a(S'left'
p67
F411.73607897758484
tp68
a(S'right'
p69
F412.30496287345886
tp70
a(S'left'
p71
F412.90491485595703
tp72
a(S'right'
p73
F413.5523290634155
tp74
a(S'left'
p75
F414.15294885635376
tp76
a(S'right'
p77
F414.6889228820801
tp78
a(S'left'
p79
F415.0808529853821
tp80
a(S'right'
p81
F415.5528869628906
tp82
a(S'left'
p83
F416.0408809185028
tp84
a(S'right'
p85
F416.5452809333801
tp86
a(S'left'
p87
F417.2249128818512
tp88
a(S'right'
p89
F417.7048749923706
tp90
a(S'left'
p91
F418.2169098854065
tp92
a(S'right'
p93
F418.7768750190735
tp94
a(S'left'
p95
F419.3688678741455
tp96
a(S'right'
p97
F419.96887493133545
tp98
a(S'left'
p99
F420.3848910331726
tp100
a(S'right'
p101
F420.97686290740967
tp102
a(S'left'
p103
F421.5768530368805
tp104
a(S'right'
p105
F422.11286187171936
tp106
a(S'left'
p107
F422.56085085868835
tp108
a(S'right'
p109
F422.97684693336487
tp110
a(S'left'
p111
F423.60084986686707
tp112
a(S'right'
p113
F424.02482891082764
tp114
a(S'left'
p115
F424.6408748626709
tp116
a(S'right'
p117
F425.20885491371155
tp118
a(S'left'
p119
F425.8648488521576
tp120
a(S'right'
p121
F426.36116194725037
tp122
a(S'left'
p123
F426.8648250102997
tp124
a(S'right'
p125
F427.29683685302734
tp126
assS'DT'
p127
(dp128
S'AS'
p129
(lp130
F656.8695659637451
aF657.533933877945
aF658.1676199436188
aF658.8342869281769
aF659.5006148815155
aF660.134124994278
aF660.8008060455322
aF661.4672238826752
aF662.1008110046387
aF662.7674369812012
aF663.4338920116425
aF664.0674350261688
aF664.7342369556427
aF665.4006888866425
aF666.0340960025787
aF666.7007849216461
aF667.367173910141
aF668.0007698535919
aF668.6673929691315
aF669.3338589668274
aF669.9674038887024
aF670.6340630054474
aF671.3006479740143
aF671.9341859817505
aF672.6007828712463
aF673.267166852951
aF673.9007160663605
aF674.5673649311066
aF675.2338020801544
aF675.8673539161682
aF676.5340268611908
aF677.2004768848419
aF677.8341300487518
aF678.5008189678192
aF679.1672358512878
aF679.8006830215454
aF680.4672980308533
aF681.1337630748749
aF681.76731300354
aF682.4339599609375
aF683.1004240512848
aF683.7339770793915
aF684.4006180763245
aF685.0670778751373
aF685.7006449699402
aF686.3672878742218
asS'TM'
p131
(lp132
(S'space'
p133
F657.5113260746002
tp134
a(S'space'
p135
F658.063304901123
tp136
a(S'space'
p137
F659.2792890071869
tp138
a(S'space'
p139
F660.2711009979248
tp140
a(S'space'
p141
F661.1112148761749
tp142
a(S'space'
p143
F662.2310779094696
tp144
a(S'space'
p145
F663.3030989170074
tp146
a(S'space'
p147
F664.1510779857635
tp148
a(S'space'
p149
F664.9672980308533
tp150
a(S'space'
p151
F666.5009560585022
tp152
a(S'space'
p153
F667.5350558757782
tp154
a(S'space'
p155
F668.4676580429077
tp156
a(S'space'
p157
F668.8232309818268
tp158
a(S'space'
p159
F669.2631869316101
tp160
a(S'space'
p161
F670.0232138633728
tp162
a(S'space'
p163
F670.8731498718262
tp164
a(S'space'
p165
F671.847137928009
tp166
a(S'space'
p167
F673.1753258705139
tp168
a(S'space'
p169
F674.3675320148468
tp170
a(S'space'
p171
F675.6675310134888
tp172
a(S'space'
p173
F676.3991630077362
tp174
a(S'space'
p175
F677.0071749687195
tp176
a(S'space'
p177
F677.911180973053
tp178
a(S'space'
p179
F678.8229880332947
tp180
a(S'space'
p181
F678.9110519886017
tp182
a(S'space'
p183
F679.601019859314
tp184
a(S'space'
p185
F679.9990220069885
tp186
a(S'space'
p187
F680.9190349578857
tp188
a(S'space'
p189
F681.9350900650024
tp190
a(S'space'
p191
F682.903156042099
tp192
a(S'space'
p193
F684.200777053833
tp194
a(S'space'
p195
F684.967206954956
tp196
a(S'space'
p197
F685.7990829944611
tp198
asS'AM'
p199
(lp200
(S'left'
p201
F659.4076199531555
tp202
a(S'right'
p203
F659.9342548847198
tp204
a(S'left'
p205
F660.2472548484802
tp206
a(S'right'
p207
F660.8392949104309
tp208
a(S'left'
p209
F661.1270968914032
tp210
a(S'right'
p211
F661.9009749889374
tp212
a(S'left'
p213
F662.1512429714203
tp214
a(S'right'
p215
F662.7592248916626
tp216
a(S'left'
p217
F663.2472479343414
tp218
a(S'left'
p219
F664.1432559490204
tp220
a(S'right'
p221
F664.5343959331512
tp222
a(S'left'
p223
F665.0551588535309
tp224
a(S'right'
p225
F665.8342518806458
tp226
a(S'left'
p227
F666.5010449886322
tp228
a(S'right'
p229
F667.0568699836731
tp230
a(S'left'
p231
F667.5191960334778
tp232
a(S'right'
p233
F667.9671189785004
tp234
a(S'left'
p235
F668.4675619602203
tp236
a(S'right'
p237
F670.4342310428619
tp238
a(S'left'
p239
F670.8672339916229
tp240
a(S'right'
p241
F671.2471408843994
tp242
a(S'left'
p243
F672.4009459018707
tp244
a(S'right'
p245
F672.4073910713196
tp246
a(S'right'
p247
F673.439110994339
tp248
a(S'left'
p249
F674.367693901062
tp250
a(S'right'
p251
F674.49498295784
tp252
a(S'left'
p253
F675.7190079689026
tp254
a(S'left'
p255
F678.7751829624176
tp256
a(S'right'
p257
F679.6008620262146
tp258
a(S'left'
p259
F679.782947063446
tp260
a(S'right'
p261
F680.6231160163879
tp262
a(S'left'
p263
F680.7830169200897
tp264
a(S'right'
p265
F681.5674798488617
tp266
a(S'left'
p267
F682.4511680603027
tp268
a(S'right'
p269
F683.2230858802795
tp270
a(S'left'
p271
F683.6150350570679
tp272
a(S'right'
p273
F684.4951179027557
tp274
a(S'left'
p275
F685.1110239028931
tp276
asS'TS'
p277
(lp278
F657.2006728649139
aF658.184161901474
aF659.1672420501709
aF660.1506230831146
aF661.1338958740234
aF662.1173980236053
aF663.1005589962006
aF664.0839178562164
aF665.067214012146
aF666.0505158901215
aF667.0338609218597
aF668.0172169208527
aF669.0005259513855
aF669.9838709831238
aF670.9671449661255
aF671.9507129192352
aF672.9340188503265
aF673.9171068668365
aF674.900496006012
aF675.8839468955994
aF676.8671329021454
aF677.8506050109863
aF678.8339190483093
aF679.8172979354858
aF680.8004269599915
aF681.7839369773865
aF682.7670819759369
aF683.7506110668182
aF684.7338960170746
aF685.7172269821167
assS'DA'
p279
(dp280
g129
(lp281
F794.4018969535828
aF795.0664849281311
aF795.700033903122
aF796.3665509223938
aF797.0329940319061
aF797.6665320396423
aF798.3331768512726
aF798.9997580051422
aF799.6331989765167
aF800.2998459339142
aF800.9664368629456
aF801.5999760627747
aF802.2666680812836
aF802.9329309463501
aF803.5665709972382
aF804.2331709861755
aF804.8996088504791
aF805.5331439971924
aF806.1998069286346
aF806.8662509918213
aF807.4999530315399
aF808.1666250228882
aF808.8329029083252
aF809.4664599895477
aF810.1331160068512
aF810.7995488643646
aF811.4331040382385
aF812.0997769832611
aF812.7661910057068
aF813.3997559547424
aF814.0665819644928
aF814.7330138683319
aF815.3664169311523
aF816.0330848693848
aF816.699490070343
aF817.3330409526825
aF817.9997289180756
aF818.6661760807037
aF819.2997269630432
aF819.9663670063019
aF820.6328060626984
aF821.2665059566498
aF821.9330339431763
aF822.5994679927826
aF823.2330160140991
aF823.8996958732605
asg131
(lp282
(S'space'
p283
F799.0164370536804
tp284
a(S'space'
p285
F800.1183519363403
tp286
a(S'space'
p287
F802.0668749809265
tp288
a(S'space'
p289
F802.8389298915863
tp290
a(S'space'
p291
F804.5022828578949
tp292
a(S'space'
p293
F805.3332998752594
tp294
a(S'space'
p295
F806.6702320575714
tp296
a(S'space'
p297
F807.9668278694153
tp298
a(S'space'
p299
F808.9501650333405
tp300
a(S'space'
p301
F810.4221799373627
tp302
a(S'space'
p303
F811.8999030590057
tp304
a(S'space'
p305
F813.1998839378357
tp306
a(S'space'
p307
F813.8668439388275
tp308
a(S'space'
p309
F814.6622228622437
tp310
a(S'space'
p311
F815.8332109451294
tp312
a(S'space'
p313
F816.7581069469452
tp314
a(S'space'
p315
F817.7998518943787
tp316
a(S'space'
p317
F818.6141669750214
tp318
a(S'space'
p319
F819.7821710109711
tp320
a(S'space'
p321
F820.7100970745087
tp322
a(S'space'
p323
F821.7332179546356
tp324
a(S'space'
p325
F822.5660388469696
tp326
a(S'space'
p327
F823.7980148792267
tp328
asg199
(lp329
(S'right'
p330
F795.2144079208374
tp331
a(S'left'
p332
F795.5002770423889
tp333
a(S'right'
p334
F795.8143439292908
tp335
a(S'left'
p336
F796.5997140407562
tp337
a(S'right'
p338
F796.8382830619812
tp339
a(S'left'
p340
F797.7107138633728
tp341
a(S'right'
p342
F798.1743309497833
tp343
a(S'left'
p344
F799.0164940357208
tp345
a(S'right'
p346
F799.4334230422974
tp347
a(S'left'
p348
F800.5823018550873
tp349
a(S'right'
p350
F800.750216960907
tp351
a(S'left'
p352
F801.5983340740204
tp353
a(S'right'
p354
F802.1341440677643
tp355
a(S'left'
p356
F802.7102780342102
tp357
a(S'right'
p358
F803.3667969703674
tp359
a(S'left'
p360
F804.0333468914032
tp361
a(S'right'
p362
F804.870246887207
tp363
a(S'left'
p364
F805.7662570476532
tp365
a(S'right'
p366
F806.3102488517761
tp367
a(S'left'
p368
F806.8221499919891
tp369
a(S'right'
p370
F807.3902740478516
tp371
a(S'left'
p372
F808.5164668560028
tp373
a(S'right'
p374
F808.6301259994507
tp375
a(S'left'
p376
F809.3422219753265
tp377
a(S'right'
p378
F809.9582228660583
tp379
a(S'left'
p380
F811.233237028122
tp381
a(S'right'
p382
F811.3341419696808
tp383
a(S'left'
p384
F812.0781049728394
tp385
a(S'right'
p386
F812.5101969242096
tp387
a(S'left'
p388
F813.5982389450073
tp389
a(S'right'
p390
F814.1501839160919
tp391
a(S'left'
p392
F814.870120048523
tp393
a(S'right'
p394
F815.2941670417786
tp395
a(S'left'
p396
F816.1421549320221
tp397
a(S'right'
p398
F816.4541249275208
tp399
a(S'left'
p400
F817.2941739559174
tp401
a(S'right'
p402
F817.9020240306854
tp403
a(S'left'
p404
F819.0998408794403
tp405
a(S'right'
p406
F819.1660330295563
tp407
a(S'left'
p408
F820.2461378574371
tp409
a(S'right'
p410
F820.4300549030304
tp411
a(S'left'
p412
F821.0704610347748
tp413
a(S'right'
p414
F821.7331628799438
tp415
a(S'left'
p416
F822.4461719989777
tp417
a(S'right'
p418
F823.0331339836121
tp419
a(S'right'
p420
F823.6998229026794
tp421
asg277
(lp422
F794.733167886734
aF795.7165160179138
aF796.6996328830719
aF797.6831600666046
aF798.6663029193878
aF799.6497790813446
aF800.6329319477081
aF801.6163220405579
aF802.5995879173279
aF803.5829770565033
aF804.5662698745728
aF805.5496320724487
aF806.5329098701477
aF807.5164420604706
aF808.4997038841248
aF809.4830830097198
aF810.4662299156189
aF811.4497308731079
aF812.432862997055
aF813.4163930416107
aF814.3996748924255
aF815.3830418586731
aF816.3661799430847
aF817.3496990203857
aF818.3328368663788
aF819.3163619041443
aF820.2994558811188
aF821.2830040454865
aF822.2661459445953
aF823.249655008316
assS'T'
p423
(dp424
g5
(lp425
F109.87115693092346
aF110.4044599533081
aF110.9376540184021
aF111.47113490104675
aF112.00428700447083
aF112.53773498535156
aF113.07110786437988
aF113.60443997383118
aF114.13775897026062
aF114.671226978302
aF115.20441198348999
aF115.73775601387024
aF116.27106094360352
aF116.80440402030945
aF117.33775496482849
aF117.87107491493225
aF118.4043960571289
aF118.93757486343384
aF119.47108197212219
aF120.00432395935059
aF120.53770399093628
aF121.07090306282043
aF121.60437989234924
aF122.13767790794373
aF122.67104387283325
aF123.20435786247253
aF123.73770904541016
aF124.27102589607239
aF124.80419898033142
aF125.33768892288208
aF125.87102794647217
aF126.40434408187866
aF126.93752193450928
aF127.47102308273315
aF128.00432205200195
aF128.53766703605652
aF129.07084798812866
aF129.60433101654053
aF130.13765692710876
aF130.6709849834442
aF131.20430707931519
aF131.7376470565796
aF132.27097702026367
aF132.80430102348328
aF133.3376190662384
aF133.87096405029297
aF134.40427994728088
aF134.93746495246887
aF135.47104787826538
aF136.0042769908905
aF136.53760385513306
aF137.07079005241394
aF137.60426998138428
aF138.13760089874268
aF138.67093300819397
aF139.2042510509491
aF139.73758006095886
aF140.2709310054779
aF140.80433297157288
aF141.33757400512695
asg7
(lp426
(S'return'
p427
F111.00301790237427
tp428
a(S'return'
p429
F111.38702702522278
tp430
a(S'return'
p431
F111.90702104568481
tp432
a(S'return'
p433
F112.42700099945068
tp434
a(S'return'
p435
F112.85932993888855
tp436
a(S'return'
p437
F113.42703485488892
tp438
a(S'return'
p439
F113.93113303184509
tp440
a(S'return'
p441
F114.49096989631653
tp442
a(S'return'
p443
F115.10696697235107
tp444
a(S'return'
p445
F115.55497193336487
tp446
a(S'return'
p447
F116.35496997833252
tp448
a(S'return'
p449
F117.65485405921936
tp450
a(S'return'
p451
F117.89095091819763
tp452
a(S'return'
p453
F118.37890100479126
tp454
a(S'return'
p455
F118.86690998077393
tp456
a(S'return'
p457
F119.43494391441345
tp458
a(S'return'
p459
F120.00447106361389
tp460
a(S'return'
p461
F120.50690197944641
tp462
a(S'return'
p463
F121.01091694831848
tp464
a(S'return'
p465
F121.49091792106628
tp466
a(S'return'
p467
F121.94689798355103
tp468
a(S'return'
p469
F122.50689506530762
tp470
a(S'return'
p471
F122.99521803855896
tp472
a(S'return'
p473
F123.52132892608643
tp474
a(S'return'
p475
F124.05475497245789
tp476
a(S'return'
p477
F124.58808588981628
tp478
a(S'return'
p479
F125.12129187583923
tp480
a(S'return'
p481
F125.65473890304565
tp482
a(S'return'
p483
F126.18807792663574
tp484
a(S'return'
p485
F126.72129607200623
tp486
a(S'return'
p487
F127.25456500053406
tp488
a(S'return'
p489
F127.78807401657104
tp490
a(S'return'
p491
F128.32140803337097
tp492
a(S'return'
p493
F128.85468888282776
tp494
a(S'return'
p495
F129.3879029750824
tp496
a(S'return'
p497
F129.92140889167786
tp498
a(S'return'
p499
F130.45486497879028
tp500
a(S'return'
p501
F131.1148600578308
tp502
a(S'return'
p503
F131.70686602592468
tp504
a(S'return'
p505
F132.2347960472107
tp506
a(S'return'
p507
F132.70682191848755
tp508
a(S'return'
p509
F133.21881103515625
tp510
a(S'return'
p511
F133.77883005142212
tp512
a(S'return'
p513
F134.33880305290222
tp514
a(S'return'
p515
F134.82679891586304
tp516
a(S'return'
p517
F135.2907910346985
tp518
a(S'return'
p519
F135.87484908103943
tp520
a(S'return'
p521
F136.40280103683472
tp522
a(S'return'
p523
F136.89079904556274
tp524
a(S'return'
p525
F137.47482085227966
tp526
a(S'return'
p527
F137.99478888511658
tp528
a(S'return'
p529
F138.58677697181702
tp530
a(S'return'
p531
F139.0747640132904
tp532
a(S'return'
p533
F139.83489108085632
tp534
a(S'return'
p535
F140.8045048713684
tp536
a(S'return'
p537
F141.394868850708
tp538
assS'D'
p539
(dp540
g129
(lp541
F529.5703909397125
aF530.2347769737244
aF530.868402004242
aF531.5350148677826
aF532.2015869617462
aF532.8351240158081
aF533.5016660690308
aF534.1681230068207
aF534.8017740249634
aF535.4683170318604
aF536.1347780227661
aF536.7683188915253
aF537.435005903244
aF538.1015388965607
aF538.7351279258728
aF539.4017770290375
aF540.0680708885193
aF540.7016270160675
aF541.3683030605316
aF542.0347130298615
aF542.6682698726654
aF543.3349289894104
aF544.001363992691
aF544.63507604599
aF545.3017449378967
aF545.9680380821228
aF546.6015799045563
aF547.2682468891144
aF547.9346690177917
aF548.5682179927826
aF549.2348818778992
aF549.901447057724
aF550.5348780155182
aF551.2015330791473
aF551.8679840564728
aF552.5015308856964
aF553.1682188510895
aF553.8346030712128
aF554.4682159423828
aF555.1348550319672
aF555.8012890815735
aF556.434828042984
aF557.1015028953552
aF557.7679250240326
aF558.4016139507294
aF559.0681838989258
asg131
(lp542
(S'space'
p543
F531.5202238559723
tp544
a(S'space'
p545
F531.9122080802917
tp546
a(S'space'
p547
F532.7201910018921
tp548
a(S'space'
p549
F534.0401439666748
tp550
a(S'space'
p551
F534.9521789550781
tp552
a(S'space'
p553
F535.6641330718994
tp554
a(S'space'
p555
F535.9600610733032
tp556
a(S'space'
p557
F536.568510055542
tp558
a(S'space'
p559
F537.235179901123
tp560
a(S'space'
p561
F538.0401079654694
tp562
a(S'space'
p563
F539.2085318565369
tp564
a(S'space'
p565
F540.6001009941101
tp566
a(S'space'
p567
F541.2959179878235
tp568
a(S'space'
p569
F542.0080609321594
tp570
a(S'space'
p571
F543.2801010608673
tp572
a(S'space'
p573
F546.0399630069733
tp574
a(S'space'
p575
F547.0684049129486
tp576
a(S'space'
p577
F547.9199130535126
tp578
a(S'space'
p579
F551.4349000453949
tp580
a(S'space'
p581
F551.8906769752502
tp582
a(S'space'
p583
F552.5839948654175
tp584
a(S'space'
p585
F553.1118378639221
tp586
a(S'space'
p587
F553.9358670711517
tp588
a(S'space'
p589
F558.2017478942871
tp590
asg199
(lp591
(S'right'
p592
F530.6685910224915
tp593
a(S'right'
p594
F534.068197965622
tp595
a(S'left'
p596
F534.9839570522308
tp597
a(S'left'
p598
F535.6799380779266
tp599
a(S'right'
p600
F535.9679460525513
tp601
a(S'left'
p602
F536.5686030387878
tp603
a(S'right'
p604
F537.2352690696716
tp605
a(S'left'
p606
F538.0719130039215
tp607
a(S'right'
p608
F538.5353019237518
tp609
a(S'left'
p610
F539.8640849590302
tp611
a(S'left'
p612
F540.6399259567261
tp613
a(S'right'
p614
F541.2560589313507
tp615
a(S'left'
p616
F542.0238990783691
tp617
a(S'right'
p618
F542.4683890342712
tp619
a(S'left'
p620
F543.3038840293884
tp621
a(S'right'
p622
F543.9200489521027
tp623
a(S'left'
p624
F544.7280700206757
tp625
a(S'right'
p626
F545.101861000061
tp627
a(S'left'
p628
F545.8880689144135
tp629
a(S'right'
p630
F546.4960038661957
tp631
a(S'left'
p632
F546.7840139865875
tp633
a(S'right'
p634
F547.3760030269623
tp635
a(S'left'
p636
F547.7919888496399
tp637
a(S'right'
p638
F548.3683409690857
tp639
a(S'left'
p640
F549.1440448760986
tp641
a(S'right'
p642
F549.487988948822
tp643
a(S'left'
p644
F550.3350009918213
tp645
a(S'right'
p646
F550.4799199104309
tp647
a(S'right'
p648
F552.301647901535
tp649
a(S'left'
p650
F552.5918128490448
tp651
a(S'right'
p652
F553.1039559841156
tp653
a(S'left'
p654
F553.7839570045471
tp655
a(S'right'
p656
F554.3599288463593
tp657
a(S'left'
p658
F554.9349849224091
tp659
a(S'right'
p660
F555.5999839305878
tp661
a(S'left'
p662
F556.2349588871002
tp663
a(S'right'
p664
F557.2559230327606
tp665
a(S'left'
p666
F557.673975944519
tp667
a(S'right'
p668
F558.8683350086212
tp669
asg277
(lp670
F529.9014790058136
aF530.8849489688873
aF531.8682789802551
aF532.8514668941498
aF533.8347680568695
aF534.8183028697968
aF535.8014068603516
aF536.7847809791565
aF537.7680718898773
aF538.7514379024506
aF539.7347159385681
aF540.7180919647217
aF541.701376914978
aF542.6847460269928
aF543.6680629253387
aF544.6515600681305
aF545.6348428726196
aF546.618262052536
aF547.6013388633728
aF548.5848429203033
aF549.5680129528046
aF550.5515148639679
aF551.5348188877106
aF552.5181279182434
aF553.5013020038605
aF554.484785079956
aF555.4679749011993
aF556.451446056366
aF557.4346079826355
aF558.4181458950043
asssS'LH'
p671
(dp672
g3
(dp673
g5
(lp674
F451.7188050746918
aF452.2520749568939
aF452.7852849960327
aF453.31881499290466
aF453.8519380092621
aF454.3854629993439
aF454.9187979698181
aF455.45210695266724
aF455.9854259490967
aF456.5187928676605
aF457.0521008968353
aF457.58542799949646
aF458.11877393722534
aF458.65207600593567
aF459.18542098999023
aF459.71877002716064
aF460.2520749568939
aF460.78524804115295
aF461.3187620639801
aF461.8518760204315
aF462.38540387153625
aF462.91872906684875
aF463.4520468711853
aF463.9853849411011
aF464.51872396469116
aF465.0520439147949
aF465.58538699150085
aF466.11873388290405
aF466.6520359516144
aF467.18536901474
aF467.7186908721924
aF468.2520089149475
aF468.7851948738098
aF469.318678855896
aF469.85185384750366
aF470.3853509426117
aF470.9186780452728
aF471.4519999027252
aF471.98540592193604
aF472.51868295669556
aF473.05200695991516
aF473.58532786369324
aF474.11866903305054
aF474.65197706222534
aF475.1853129863739
aF475.71865701675415
aF476.2519779205322
aF476.7851400375366
aF477.31864285469055
aF477.85180592536926
aF478.3853030204773
aF478.9186508655548
aF479.4519610404968
aF479.9852719306946
aF480.518630027771
aF481.05193185806274
aF481.58526706695557
aF482.11860704421997
aF482.65192198753357
aF483.18526101112366
asg7
(lp675
(S'd'
p676
F453.10239696502686
tp677
a(S'a'
p678
F453.1845350265503
tp679
a(S'd'
p680
F453.7207009792328
tp681
a(S'a'
p682
F454.1690080165863
tp683
a(S'd'
p684
F454.702476978302
tp685
a(S'a'
p686
F455.2358260154724
tp687
a(S'd'
p688
F455.7691810131073
tp689
a(S'a'
p690
F456.30252504348755
tp691
a(S'd'
p692
F456.83583903312683
tp693
a(S'a'
p694
F457.3691110610962
tp695
a(S'd'
p696
F457.902410030365
tp697
a(S'a'
p698
F458.4357969760895
tp699
a(S'd'
p700
F458.9691128730774
tp701
a(S'a'
p702
F459.5024700164795
tp703
a(S'd'
p704
F460.0358009338379
tp705
a(S'a'
p706
F460.56909108161926
tp707
a(S'd'
p708
F461.10228395462036
tp709
a(S'a'
p710
F461.63576006889343
tp711
a(S'd'
p712
F462.16894793510437
tp713
a(S'a'
p714
F462.702467918396
tp715
a(S'd'
p716
F463.23576188087463
tp717
a(S'a'
p718
F463.8406159877777
tp719
a(S'd'
p720
F464.36058592796326
tp721
a(S'a'
p722
F464.89657402038574
tp723
a(S'd'
p724
F465.36891293525696
tp725
a(S'a'
p726
F465.9685719013214
tp727
a(S'd'
p728
F466.4725749492645
tp729
a(S'a'
p730
F467.0405728816986
tp731
a(S'd'
p732
F467.56053590774536
tp733
a(S'a'
p734
F468.08052802085876
tp735
a(S'd'
p736
F468.6965608596802
tp737
a(S'a'
p738
F469.20052790641785
tp739
a(S'd'
p740
F469.66452503204346
tp741
a(S'a'
p742
F470.1845269203186
tp743
a(S'd'
p744
F470.7023949623108
tp745
a(S'a'
p746
F471.2485320568085
tp747
a(S'd'
p748
F471.88853693008423
tp749
a(S'a'
p750
F472.3125219345093
tp751
a(S'd'
p752
F472.8805248737335
tp753
a(S'a'
p754
F473.36888003349304
tp755
a(S'd'
p756
F473.9023220539093
tp757
a(S'a'
p758
F474.4357318878174
tp759
a(S'd'
p760
F474.96887397766113
tp761
a(S'a'
p762
F475.5285270214081
tp763
a(S'd'
p764
F476.1044828891754
tp765
a(S'a'
p766
F476.56887793540955
tp767
a(S'd'
p768
F477.1364920139313
tp769
a(S'a'
p770
F477.6356339454651
tp771
a(S'd'
p772
F478.19248390197754
tp773
a(S'a'
p774
F478.7204930782318
tp775
a(S'd'
p776
F479.25646901130676
tp777
a(S'a'
p778
F479.8244869709015
tp779
a(S'd'
p780
F480.38448095321655
tp781
a(S'a'
p782
F480.9125130176544
tp783
a(S'd'
p784
F481.4644510746002
tp785
a(S'a'
p786
F482.0804328918457
tp787
a(S'd'
p788
F482.624449968338
tp789
a(S'a'
p790
F483.10443091392517
tp791
a(S'd'
p792
F483.6244239807129
tp793
assg127
(dp794
g129
(lp795
F733.1190190315247
aF733.7834150791168
aF734.4169869422913
aF735.0836269855499
aF735.7501709461212
aF736.383759021759
aF737.0502429008484
aF737.716747045517
aF738.3502600193024
aF739.0169439315796
aF739.6833729743958
aF740.3169538974762
aF740.9835588932037
aF741.6501319408417
aF742.2837209701538
aF742.9503679275513
aF743.6166939735413
aF744.2502238750458
aF744.9169070720673
aF745.583340883255
aF746.2168939113617
aF746.883544921875
aF747.5499858856201
aF748.183531999588
aF748.8503458499908
aF749.5167739391327
aF750.1502079963684
aF750.8168659210205
aF751.483295917511
aF752.1168298721313
aF752.7834939956665
aF753.4499499797821
aF754.0835020542145
aF754.7501640319824
aF755.416748046875
aF756.050271987915
aF756.7168278694153
aF757.3833289146423
aF758.0168490409851
aF758.6834700107574
aF759.3498909473419
aF759.9834458827972
aF760.6501479148865
aF761.3165500164032
aF761.9502310752869
aF762.6167969703674
asg131
(lp796
(S'return'
p797
F733.7107799053192
tp798
a(S'return'
p799
F734.2707960605621
tp800
a(S'return'
p801
F735.2386119365692
tp802
a(S'return'
p803
F736.5187320709229
tp804
a(S'return'
p805
F737.4785768985748
tp806
a(S'return'
p807
F738.574718952179
tp808
a(S'return'
p809
F739.7987818717957
tp810
a(S'return'
p811
F740.3987400531769
tp812
a(S'return'
p813
F741.4307270050049
tp814
a(S'return'
p815
F742.7505419254303
tp816
a(S'return'
p817
F743.7426970005035
tp818
a(S'return'
p819
F744.3507149219513
tp820
a(S'return'
p821
F745.430734872818
tp822
a(S'return'
p823
F746.6837749481201
tp824
a(S'return'
p825
F747.4560480117798
tp826
a(S'return'
p827
F748.4335379600525
tp828
a(S'return'
p829
F749.3265829086304
tp830
a(S'return'
p831
F750.616996049881
tp832
a(S'return'
p833
F751.5000510215759
tp834
a(S'return'
p835
F752.5838298797607
tp836
a(S'return'
p837
F753.4065959453583
tp838
a(S'return'
p839
F754.5502960681915
tp840
a(S'return'
p841
F755.5345380306244
tp842
a(S'return'
p843
F756.9665839672089
tp844
a(S'return'
p845
F758.0705850124359
tp846
a(S'return'
p847
F758.9226200580597
tp848
a(S'return'
p849
F760.5104310512543
tp850
a(S'return'
p851
F761.36656498909
tp852
a(S'return'
p853
F762.030580997467
tp854
asg199
(lp855
(S'a'
p856
F735.1060829162598
tp857
a(S'a'
p858
F736.8550219535828
tp859
a(S'd'
p860
F737.4707760810852
tp861
a(S'a'
p862
F737.7586989402771
tp863
a(S'd'
p864
F738.1504280567169
tp865
a(S'a'
p866
F739.0469930171967
tp867
a(S'd'
p868
F739.2305438518524
tp869
a(S'a'
p870
F740.8307249546051
tp871
a(S'a'
p872
F742.0838949680328
tp873
a(S'd'
p874
F742.0948729515076
tp875
a(S'a'
p876
F743.3267719745636
tp877
a(S'a'
p878
F745.6866369247437
tp879
a(S'd'
p880
F746.3986968994141
tp881
a(S'a'
p882
F747.2334270477295
tp883
a(S'a'
p884
F748.6865749359131
tp885
a(S'd'
p886
F749.1186640262604
tp887
a(S'a'
p888
F749.9503378868103
tp889
a(S'd'
p890
F750.0544788837433
tp891
a(S'a'
p892
F750.7585430145264
tp893
a(S'd'
p894
F751.2866489887238
tp895
a(S'a'
p896
F751.9506049156189
tp897
a(S'd'
p898
F752.5836770534515
tp899
a(S'a'
p900
F753.0229730606079
tp901
a(S'a'
p902
F753.8836209774017
tp903
a(S'd'
p904
F754.1506049633026
tp905
a(S'a'
p906
F754.9425749778748
tp907
a(S'd'
p908
F755.2705950737
tp909
a(S'a'
p910
F755.9745700359344
tp911
a(S'd'
p912
F756.5169529914856
tp913
a(S'a'
p914
F757.5826139450073
tp915
a(S'd'
p916
F758.1504099369049
tp917
a(S'a'
p918
F759.783576965332
tp919
a(S'a'
p920
F760.450278043747
tp921
a(S'd'
p922
F760.9505679607391
tp923
a(S'a'
p924
F762.5105519294739
tp925
asg277
(lp926
F733.4500849246979
aF734.4336049556732
aF735.4167339801788
aF736.400209903717
aF737.3833689689636
aF738.3669140338898
aF739.3500239849091
aF740.3333809375763
aF741.3167340755463
aF742.3000090122223
aF743.2833440303802
aF744.2668528556824
aF745.2500009536743
aF746.2333400249481
aF747.2166628837585
aF748.2001218795776
aF749.1834530830383
aF750.1668610572815
aF751.1499638557434
aF752.1335740089417
aF753.1166088581085
aF754.1001398563385
aF755.0832579135895
aF756.0668170452118
aF757.0499129295349
aF758.0334150791168
aF759.0165810585022
aF760.0000660419464
aF760.9832239151001
aF761.9667630195618
assg279
(dp927
g129
(lp928
F844.6183569431305
aF845.2826690673828
aF845.9162080287933
aF846.5828700065613
aF847.2493178844452
aF847.8827910423279
aF848.5495178699493
aF849.2159359455109
aF849.8495180606842
aF850.5163240432739
aF851.1827440261841
aF851.8161010742188
aF852.4828150272369
aF853.1492710113525
aF853.7828049659729
aF854.4495038986206
aF855.1158919334412
aF855.7495908737183
aF856.416130065918
aF857.082710981369
aF857.7162699699402
aF858.3827819824219
aF859.0492379665375
aF859.6830339431763
aF860.3494510650635
aF861.0158460140228
aF861.6494379043579
aF862.3161089420319
aF862.9825270175934
aF863.6162209510803
aF864.2828860282898
aF864.9491939544678
aF865.5826890468597
aF866.249428987503
aF866.915796995163
aF867.5494129657745
aF868.2160530090332
aF868.8824388980865
aF869.5160250663757
aF870.182699918747
aF870.8491370677948
aF871.482656955719
aF872.1493699550629
aF872.8157949447632
aF873.4493670463562
aF874.1160290241241
asg131
(lp929
(S'return'
p930
F847.1900160312653
tp931
a(S'return'
p932
F848.9819760322571
tp933
a(S'return'
p934
F850.0139169692993
tp935
a(S'return'
p936
F851.2061529159546
tp937
a(S'return'
p938
F852.3419630527496
tp939
a(S'return'
p940
F853.9178750514984
tp941
a(S'return'
p942
F855.0379538536072
tp943
a(S'return'
p944
F856.2299098968506
tp945
a(S'return'
p946
F857.2379019260406
tp947
a(S'return'
p948
F858.3738729953766
tp949
a(S'return'
p950
F860.6538379192352
tp951
a(S'return'
p952
F862.1162440776825
tp953
a(S'return'
p954
F863.0138149261475
tp955
a(S'return'
p956
F864.3498420715332
tp957
a(S'return'
p958
F866.049556016922
tp959
a(S'return'
p960
F866.8221049308777
tp961
a(S'return'
p962
F868.5658910274506
tp963
a(S'return'
p964
F869.982969045639
tp965
a(S'return'
p966
F871.282840013504
tp967
a(S'return'
p968
F872.4297430515289
tp969
a(S'return'
p970
F873.916200876236
tp971
asg199
(lp972
(S'a'
p973
F845.4060499668121
tp974
a(S'd'
p975
F845.9327380657196
tp976
a(S'a'
p977
F846.5100119113922
tp978
a(S'a'
p979
F847.6829299926758
tp980
a(S'd'
p981
F847.6830129623413
tp982
a(S'a'
p983
F847.9499850273132
tp984
a(S'd'
p985
F848.413999080658
tp986
a(S'a'
p987
F849.3740010261536
tp988
a(S'd'
p989
F849.7819309234619
tp990
a(S'a'
p991
F850.4379179477692
tp992
a(S'd'
p993
F851.0939478874207
tp994
a(S'a'
p995
F851.6379499435425
tp996
a(S'd'
p997
F852.7160019874573
tp998
a(S'a'
p999
F853.0619840621948
tp1000
a(S'd'
p1001
F853.7579679489136
tp1002
a(S'a'
p1003
F854.3018999099731
tp1004
a(S'd'
p1005
F855.2938480377197
tp1006
a(S'a'
p1007
F855.8219389915466
tp1008
a(S'd'
p1009
F856.5818979740143
tp1010
a(S'a'
p1011
F856.8138580322266
tp1012
a(S'd'
p1013
F857.9419300556183
tp1014
a(S'a'
p1015
F858.6858940124512
tp1016
a(S'd'
p1017
F859.1578979492188
tp1018
a(S'a'
p1019
F859.8139638900757
tp1020
a(S'd'
p1021
F860.3978879451752
tp1022
a(S'a'
p1023
F861.1418969631195
tp1024
a(S'd'
p1025
F861.5338850021362
tp1026
a(S'a'
p1027
F862.3327379226685
tp1028
a(S'd'
p1029
F862.8885159492493
tp1030
a(S'a'
p1031
F863.4163630008698
tp1032
a(S'd'
p1033
F864.0830159187317
tp1034
a(S'a'
p1035
F864.9659359455109
tp1036
a(S'd'
p1037
F865.3902380466461
tp1038
a(S'a'
p1039
F866.1177668571472
tp1040
a(S'd'
p1041
F866.6618309020996
tp1042
a(S'a'
p1043
F867.3495309352875
tp1044
a(S'd'
p1045
F868.0161859989166
tp1046
a(S'a'
p1047
F869.0218379497528
tp1048
a(S'd'
p1049
F869.7098569869995
tp1050
a(S'a'
p1051
F870.4298448562622
tp1052
a(S'd'
p1053
F870.8377840518951
tp1054
a(S'a'
p1055
F871.9495480060577
tp1056
a(S'd'
p1057
F872.1898000240326
tp1058
a(S'a'
p1059
F872.8537929058075
tp1060
a(S'd'
p1061
F873.437833070755
tp1062
asg277
(lp1063
F844.9494969844818
aF845.9327690601349
aF846.9159660339355
aF847.8994388580322
aF848.8826138973236
aF849.8659708499908
aF850.849268913269
aF851.8326258659363
aF852.8159239292145
aF853.7992510795593
aF854.7825729846954
aF855.7659440040588
aF856.749235868454
aF857.7327120304108
aF858.7159049510956
aF859.6992499828339
aF860.6825439929962
aF861.6660289764404
aF862.649188041687
aF863.6327090263367
aF864.6159889698029
aF865.5993430614471
aF866.5825090408325
aF867.5660240650177
aF868.5491490364075
aF869.5326900482178
aF870.5159540176392
aF871.4992940425873
aF872.4824709892273
aF873.4659390449524
assg423
(dp1064
g5
(lp1065
F157.48748898506165
aF158.02079391479492
aF158.55397701263428
aF159.08747100830078
aF159.62064385414124
aF160.15408492088318
aF160.68746495246887
aF161.22077989578247
aF161.75410890579224
aF162.28745007514954
aF162.82076001167297
aF163.35408401489258
aF163.88745594024658
aF164.42072105407715
aF164.95407700538635
aF165.4874279499054
aF166.02075386047363
aF166.55390906333923
aF167.08741998672485
aF167.62058901786804
aF168.15405988693237
aF168.68739795684814
aF169.22072005271912
aF169.75405287742615
aF170.28739190101624
aF170.82067203521729
aF171.35401701927185
aF171.8873929977417
aF172.42066597938538
aF172.95403003692627
aF173.48737287521362
aF174.02068996429443
aF174.55386900901794
aF175.08735990524292
aF175.62052702903748
aF176.15401792526245
aF176.68736100196838
aF177.22065997123718
aF177.75400590896606
aF178.28733897209167
aF178.82066106796265
aF179.35398697853088
aF179.88733506202698
aF180.4206359386444
aF180.95396900177002
aF181.48730206489563
aF182.02063488960266
aF182.55380702018738
aF183.08730387687683
aF183.6204650402069
aF184.15392208099365
aF184.6872968673706
aF185.22059798240662
aF185.7539598941803
aF186.28728008270264
aF186.82066988945007
aF187.35391998291016
aF187.88729786872864
aF188.42058086395264
aF188.9539098739624
asg7
(lp1066
(S'space'
p1067
F158.0827510356903
tp1068
a(S'space'
p1069
F158.53066086769104
tp1070
a(S'space'
p1071
F158.9386749267578
tp1072
a(S'space'
p1073
F159.58670806884766
tp1074
a(S'space'
p1075
F159.97871899604797
tp1076
a(S'space'
p1077
F160.47112798690796
tp1078
a(S'space'
p1079
F161.00443601608276
tp1080
a(S'space'
p1081
F161.53785705566406
tp1082
a(S'space'
p1083
F162.07117199897766
tp1084
a(S'space'
p1085
F162.6044430732727
tp1086
a(S'space'
p1087
F162.85861492156982
tp1088
a(S'space'
p1089
F163.33058905601501
tp1090
a(S'space'
p1091
F163.77063298225403
tp1092
a(S'space'
p1093
F164.21092295646667
tp1094
a(S'space'
p1095
F164.73783493041992
tp1096
a(S'space'
p1097
F165.27108788490295
tp1098
a(S'space'
p1099
F165.80449986457825
tp1100
a(S'space'
p1101
F166.07459807395935
tp1102
a(S'space'
p1103
F166.58658599853516
tp1104
a(S'space'
p1105
F167.06655097007751
tp1106
a(S'space'
p1107
F167.54663586616516
tp1108
a(S'space'
p1109
F167.9865939617157
tp1110
a(S'space'
p1111
F168.4745810031891
tp1112
a(S'space'
p1113
F169.00444507598877
tp1114
a(S'space'
p1115
F169.5378019809723
tp1116
a(S'space'
p1117
F169.79458498954773
tp1118
a(S'space'
p1119
F170.30656695365906
tp1120
a(S'space'
p1121
F170.85057187080383
tp1122
a(S'space'
p1123
F171.67107701301575
tp1124
a(S'space'
p1125
F171.95453691482544
tp1126
a(S'space'
p1127
F172.42075896263123
tp1128
a(S'space'
p1129
F172.80250787734985
tp1130
a(S'space'
p1131
F173.5305380821228
tp1132
a(S'space'
p1133
F173.91453886032104
tp1134
a(S'space'
p1135
F174.37053203582764
tp1136
a(S'space'
p1137
F174.87094902992249
tp1138
a(S'space'
p1139
F175.40435886383057
tp1140
a(S'space'
p1141
F175.93757605552673
tp1142
a(S'space'
p1143
F176.47103190422058
tp1144
a(S'space'
p1145
F177.0043590068817
tp1146
a(S'space'
p1147
F177.27450299263
tp1148
a(S'space'
p1149
F177.73051595687866
tp1150
a(S'space'
p1151
F178.25851392745972
tp1152
a(S'space'
p1153
F178.67448496818542
tp1154
a(S'space'
p1155
F179.13752698898315
tp1156
a(S'space'
p1157
F179.67101907730103
tp1158
a(S'space'
p1159
F180.20437502861023
tp1160
a(S'space'
p1161
F180.73756194114685
tp1162
a(S'space'
p1163
F181.27099990844727
tp1164
a(S'space'
p1165
F181.55445885658264
tp1166
a(S'space'
p1167
F182.04248905181885
tp1168
a(S'space'
p1169
F182.55390191078186
tp1170
a(S'space'
p1171
F182.9864640235901
tp1172
a(S'space'
p1173
F183.5144510269165
tp1174
a(S'space'
p1175
F184.0504870414734
tp1176
a(S'space'
p1177
F184.5224850177765
tp1178
a(S'space'
p1179
F184.77040791511536
tp1180
a(S'space'
p1181
F185.53754305839539
tp1182
a(S'space'
p1183
F185.82650184631348
tp1184
a(S'space'
p1185
F186.28737497329712
tp1186
a(S'space'
p1187
F186.77044296264648
tp1188
a(S'space'
p1189
F187.15443396568298
tp1190
a(S'space'
p1191
F187.68284106254578
tp1192
a(S'space'
p1193
F188.2264358997345
tp1194
a(S'space'
p1195
F188.7375249862671
tp1196
a(S'space'
p1197
F189.27480006217957
tp1198
assg539
(dp1199
g129
(lp1200
F588.2366600036621
aF588.901093006134
aF589.5345969200134
aF590.2013020515442
aF590.8678450584412
aF591.5014200210571
aF592.1679339408875
aF592.8343758583069
aF593.4679050445557
aF594.1345899105072
aF594.8010489940643
aF595.4345989227295
aF596.1012609004974
aF596.7679028511047
aF597.401370048523
aF598.0680170059204
aF598.7343409061432
aF599.3678948879242
aF600.034560918808
aF600.7010018825531
aF601.3345470428467
aF602.0011990070343
aF602.6675989627838
aF603.3013670444489
aF603.9679908752441
aF604.6343259811401
aF605.2678458690643
aF605.9345078468323
aF606.6009469032288
aF607.2344720363617
aF607.9011878967285
aF608.5675919055939
aF609.2011549472809
aF609.8679568767548
aF610.534234046936
aF611.1678009033203
aF611.8344640731812
aF612.5008940696716
aF613.1344509124756
aF613.8011269569397
aF614.4675488471985
aF615.1011118888855
aF615.7677719593048
aF616.4341750144958
aF617.0679018497467
aF617.7344238758087
asg131
(lp1201
(S'return'
p1202
F590.8077030181885
tp1203
a(S'return'
p1204
F596.6876509189606
tp1205
a(S'return'
p1206
F597.5196709632874
tp1207
a(S'return'
p1208
F598.6555368900299
tp1209
a(S'return'
p1210
F599.8346848487854
tp1211
a(S'return'
p1212
F602.5759048461914
tp1213
a(S'return'
p1214
F603.5513579845428
tp1215
a(S'return'
p1216
F604.615562915802
tp1217
a(S'return'
p1218
F605.7516059875488
tp1219
a(S'return'
p1220
F606.5915288925171
tp1221
a(S'return'
p1222
F607.70134806633
tp1223
a(S'return'
p1224
F609.6680879592896
tp1225
a(S'return'
p1226
F612.9515929222107
tp1227
a(S'return'
p1228
F614.3273949623108
tp1229
a(S'return'
p1230
F616.6395399570465
tp1231
asg199
(lp1232
(S'a'
p1233
F590.4346308708191
tp1234
a(S'd'
p1235
F590.7037289142609
tp1236
a(S'a'
p1237
F591.301591873169
tp1238
a(S'd'
p1239
F591.6637299060822
tp1240
a(S'a'
p1241
F592.2557258605957
tp1242
a(S'a'
p1243
F593.2680480480194
tp1244
a(S'd'
p1245
F593.2875819206238
tp1246
a(S'a'
p1247
F593.9837338924408
tp1248
a(S'd'
p1249
F594.6157100200653
tp1250
a(S'a'
p1251
F595.2347309589386
tp1252
a(S'd'
p1253
F595.9013900756836
tp1254
a(S'a'
p1255
F596.6237199306488
tp1256
a(S'd'
p1257
F597.201544046402
tp1258
a(S'a'
p1259
F597.8719809055328
tp1260
a(S'd'
p1261
F598.6403889656067
tp1262
a(S'a'
p1263
F599.1680190563202
tp1264
a(S'd'
p1265
F600.1356370449066
tp1266
a(S'a'
p1267
F600.6316330432892
tp1268
a(S'd'
p1269
F601.1346750259399
tp1270
a(S'a'
p1271
F601.8013310432434
tp1272
a(S'd'
p1273
F602.3836500644684
tp1274
a(S'a'
p1275
F603.1015388965607
tp1276
a(S'd'
p1277
F603.4076399803162
tp1278
a(S'a'
p1279
F603.9845218658447
tp1280
a(S'd'
p1281
F604.4236030578613
tp1282
a(S'a'
p1283
F605.0679769515991
tp1284
a(S'd'
p1285
F605.3836100101471
tp1286
a(S'a'
p1287
F606.1915979385376
tp1288
a(S'd'
p1289
F606.3675558567047
tp1290
a(S'a'
p1291
F607.0346300601959
tp1292
a(S'd'
p1293
F607.4075949192047
tp1294
a(S'a'
p1295
F608.2510118484497
tp1296
a(S'd'
p1297
F609.1116318702698
tp1298
a(S'a'
p1299
F610.1115930080414
tp1300
a(S'd'
p1301
F610.967934846878
tp1302
a(S'a'
p1303
F611.2555809020996
tp1304
a(S'd'
p1305
F611.9835839271545
tp1306
a(S'a'
p1307
F612.2555389404297
tp1308
a(S'a'
p1309
F613.7195808887482
tp1310
a(S'd'
p1311
F614.2795739173889
tp1312
a(S'a'
p1313
F614.9012999534607
tp1314
a(S'd'
p1315
F615.5679090023041
tp1316
a(S'a'
p1317
F616.1995749473572
tp1318
a(S'd'
p1319
F617.2875580787659
tp1320
asg277
(lp1321
F588.5677490234375
aF589.5512490272522
aF590.5345339775085
aF591.5177359580994
aF592.5010509490967
aF593.4845478534698
aF594.4676780700684
aF595.4510560035706
aF596.4343318939209
aF597.4176669120789
aF598.4010000228882
aF599.3843479156494
aF600.3676390647888
aF601.3510220050812
aF602.3343119621277
aF603.3178079128265
aF604.3011040687561
aF605.2844560146332
aF606.267580986023
aF607.2511470317841
aF608.2342698574066
aF609.2178289890289
aF610.2010719776154
aF611.184417963028
aF612.1675760746002
aF613.1510989665985
aF614.1341989040375
aF615.117761850357
aF616.1008939743042
aF617.0843949317932
asss.