(dp0
S'RH'
p1
(dp2
S'A'
p3
(dp4
S'S'
p5
(lp6
F248.89318418502808
aF249.42662811279297
aF249.95998811721802
aF250.49333310127258
aF251.02658414840698
aF251.55997800827026
aF252.0933301448822
aF252.62669014930725
aF253.1599681377411
aF253.69332003593445
aF254.22658514976501
aF254.7599639892578
aF255.29330015182495
aF255.82642602920532
aF256.3599519729614
aF256.8931441307068
aF257.42660117149353
aF257.95993399620056
aF258.4932701587677
aF259.026437997818
aF259.5599219799042
aF260.09327602386475
aF260.6265461444855
aF261.159912109375
aF261.69325518608093
aF262.22657108306885
aF262.7599070072174
aF263.29324412345886
aF263.82656812667847
aF264.3598880767822
aF264.8930950164795
aF265.4265470504761
aF265.9598779678345
aF266.49322605133057
aF267.02638602256775
aF267.55988001823425
aF268.09321904182434
aF268.6265170574188
aF269.1598641872406
aF269.6932010650635
aF270.2265291213989
aF270.75985503196716
aF271.2931830883026
aF271.8265600204468
aF272.3598630428314
aF272.8930320739746
aF273.4264941215515
aF273.95966696739197
aF274.49317717552185
aF275.02632999420166
aF275.5598211288452
aF276.09314703941345
aF276.626492023468
aF277.159814119339
aF277.6931540966034
aF278.22647404670715
aF278.7598011493683
aF279.29313611984253
aF279.8264510631561
aF280.3597991466522
asS'M'
p7
(lp8
(S'right'
p9
F249.21028995513916
tp10
a(S'left'
p11
F249.7436821460724
tp12
a(S'right'
p13
F250.2769911289215
tp14
a(S'left'
p15
F250.57443714141846
tp16
a(S'right'
p17
F251.0704791545868
tp18
a(S'left'
p19
F251.56007504463196
tp20
a(S'right'
p21
F252.09342503547668
tp22
a(S'left'
p23
F252.58241295814514
tp24
a(S'right'
p25
F253.1424629688263
tp26
a(S'left'
p27
F253.6384310722351
tp28
a(S'right'
p29
F254.18240308761597
tp30
a(S'left'
p31
F254.72643399238586
tp32
a(S'right'
p33
F255.23038005828857
tp34
a(S'left'
p35
F255.7664761543274
tp36
a(S'right'
p37
F256.31839418411255
tp38
a(S'left'
p39
F256.8544051647186
tp40
a(S'right'
p41
F257.4063720703125
tp42
a(S'left'
p43
F257.9600260257721
tp44
a(S'right'
p45
F258.50276017189026
tp46
a(S'left'
p47
F259.03268909454346
tp48
a(S'right'
p49
F259.5423300266266
tp50
a(S'left'
p51
F260.07032799720764
tp52
a(S'right'
p53
F260.5823531150818
tp54
a(S'left'
p55
F261.1103501319885
tp56
a(S'right'
p57
F261.6303629875183
tp58
a(S'left'
p59
F262.1343560218811
tp60
a(S'right'
p61
F262.6783971786499
tp62
a(S'left'
p63
F263.23033595085144
tp64
a(S'right'
p65
F263.74232006073
tp66
a(S'left'
p67
F264.23831510543823
tp68
a(S'right'
p69
F264.83038210868835
tp70
a(S'left'
p71
F265.3983199596405
tp72
a(S'right'
p73
F265.8782980442047
tp74
a(S'left'
p75
F266.4302930831909
tp76
a(S'right'
p77
F266.9663779735565
tp78
a(S'left'
p79
F267.6223421096802
tp80
a(S'right'
p81
F268.00626611709595
tp82
a(S'left'
p83
F268.486289024353
tp84
a(S'right'
p85
F269.07035517692566
tp86
a(S'left'
p87
F269.6623091697693
tp88
a(S'right'
p89
F270.1822900772095
tp90
a(S'left'
p91
F270.6863479614258
tp92
a(S'right'
p93
F271.1822860240936
tp94
a(S'left'
p95
F271.70227003097534
tp96
a(S'right'
p97
F272.21426701545715
tp98
a(S'left'
p99
F272.7583291530609
tp100
a(S'right'
p101
F273.30226016044617
tp102
a(S'left'
p103
F273.87825107574463
tp104
a(S'right'
p105
F274.3742620944977
tp106
a(S'left'
p107
F274.91030716896057
tp108
a(S'right'
p109
F275.3662509918213
tp110
a(S'left'
p111
F275.9262511730194
tp112
a(S'right'
p113
F276.4225800037384
tp114
a(S'left'
p115
F276.99829602241516
tp116
a(S'right'
p117
F277.6062710285187
tp118
a(S'left'
p119
F278.1902561187744
tp120
a(S'right'
p121
F278.67821407318115
tp122
a(S'left'
p123
F279.182265996933
tp124
a(S'right'
p125
F279.69422698020935
tp126
a(S'left'
p127
F280.2382221221924
tp128
a(S'right'
p129
F280.7342691421509
tp130
assS'DT'
p131
(dp132
S'AS'
p133
(lp134
F537.0769510269165
aF537.7412309646606
aF538.3747820854187
aF539.0414550304413
aF539.7079181671143
aF540.3414480686188
aF541.0081169605255
aF541.6745290756226
aF542.3082530498505
aF542.9748921394348
aF543.6411869525909
aF544.27472615242
aF544.9413681030273
aF545.6078650951385
aF546.2413911819458
aF546.9080631732941
aF547.5745010375977
aF548.2080891132355
aF548.8748550415039
aF549.5413010120392
aF550.1747260093689
aF550.8413591384888
aF551.5079290866852
aF552.1413230895996
aF552.8080439567566
aF553.4744629859924
aF554.1080310344696
aF554.7746570110321
aF555.4412360191345
aF556.0746700763702
aF556.7413160800934
aF557.4077711105347
aF558.0412969589233
aF558.7080001831055
aF559.3744089603424
aF560.0081310272217
aF560.6746311187744
aF561.3410329818726
aF561.9747560024261
aF562.6412980556488
aF563.3077330589294
aF563.9412741661072
aF564.6079139709473
aF565.2743690013885
aF565.9079420566559
aF566.5745899677277
asS'TM'
p135
(lp136
(S'space'
p137
F537.7580261230469
tp138
a(S'space'
p139
F538.8416390419006
tp140
a(S'space'
p141
F539.2925071716309
tp142
a(S'space'
p143
F540.5564911365509
tp144
a(S'space'
p145
F541.5243799686432
tp146
a(S'space'
p147
F542.4362411499023
tp148
a(S'space'
p149
F543.3963980674744
tp150
a(S'space'
p151
F544.3804759979248
tp152
a(S'space'
p153
F545.3323969841003
tp154
a(S'space'
p155
F546.3322141170502
tp156
a(S'space'
p157
F547.2363710403442
tp158
a(S'space'
p159
F548.2245750427246
tp160
a(S'space'
p161
F549.1803569793701
tp162
a(S'space'
p163
F550.1401841640472
tp164
a(S'space'
p165
F551.1323530673981
tp166
a(S'space'
p167
F552.0684499740601
tp168
a(S'space'
p169
F553.2603919506073
tp170
a(S'space'
p171
F554.1003730297089
tp172
a(S'space'
p173
F555.076339006424
tp174
a(S'space'
p175
F556.044429063797
tp176
a(S'space'
p177
F557.0911550521851
tp178
a(S'space'
p179
F558.0204169750214
tp180
a(S'space'
p181
F559.0578560829163
tp182
a(S'space'
p183
F559.9964001178741
tp184
a(S'space'
p185
F561.0303161144257
tp186
a(S'space'
p187
F561.9643681049347
tp188
a(S'space'
p189
F563.0046031475067
tp190
a(S'space'
p191
F563.932088136673
tp192
a(S'space'
p193
F564.9882960319519
tp194
a(S'space'
p195
F565.8763551712036
tp196
asS'AM'
p197
(lp198
(S'right'
p199
F538.1749541759491
tp200
a(S'left'
p201
F539.6205170154572
tp202
a(S'right'
p203
F539.9004809856415
tp204
a(S'right'
p205
F541.2845461368561
tp206
a(S'left'
p207
F541.7724630832672
tp208
a(S'right'
p209
F542.4204759597778
tp210
a(S'left'
p211
F543.1324751377106
tp212
a(S'right'
p213
F543.7164590358734
tp214
a(S'left'
p215
F544.4042210578918
tp216
a(S'right'
p217
F545.0044500827789
tp218
a(S'left'
p219
F545.6844811439514
tp220
a(S'right'
p221
F546.3164520263672
tp222
a(S'left'
p223
F546.9484529495239
tp224
a(S'right'
p225
F547.5913281440735
tp226
a(S'left'
p227
F548.2246220111847
tp228
a(S'right'
p229
F548.8913810253143
tp230
a(S'left'
p231
F549.5243480205536
tp232
a(S'right'
p233
F550.1324119567871
tp234
a(S'left'
p235
F550.7644131183624
tp236
a(S'right'
p237
F551.4763491153717
tp238
a(S'left'
p239
F552.0842130184174
tp240
a(S'right'
p241
F552.8044099807739
tp242
a(S'left'
p243
F553.5563340187073
tp244
a(S'right'
p245
F554.1246981620789
tp246
a(S'left'
p247
F554.7643830776215
tp248
a(S'right'
p249
F555.4122960567474
tp250
a(S'left'
p251
F556.0521430969238
tp252
a(S'right'
p253
F556.6603870391846
tp254
a(S'left'
p255
F557.3882939815521
tp256
a(S'right'
p257
F558.0281240940094
tp258
a(S'left'
p259
F558.6843700408936
tp260
a(S'right'
p261
F559.3642861843109
tp262
a(S'left'
p263
F560.0041360855103
tp264
a(S'right'
p265
F560.6443431377411
tp266
a(S'left'
p267
F561.3578901290894
tp268
a(S'right'
p269
F561.9721021652222
tp270
a(S'left'
p271
F562.6203320026398
tp272
a(S'right'
p273
F563.3002061843872
tp274
a(S'left'
p275
F563.924350976944
tp276
a(S'right'
p277
F564.5883059501648
tp278
a(S'left'
p279
F565.268196105957
tp280
a(S'right'
p281
F565.8840570449829
tp282
asS'TS'
p283
(lp284
F537.4079301357269
aF538.391419172287
aF539.3745269775391
aF540.3580341339111
aF541.3412020206451
aF542.3245251178741
aF543.307862997055
aF544.2912030220032
aF545.2744920253754
aF546.2580101490021
aF547.241149187088
aF548.2246441841125
aF549.2078130245209
aF550.1913380622864
aF551.1744401454926
aF552.1578409671783
aF553.1411280632019
aF554.1247260570526
aF555.1077950000763
aF556.0913031101227
aF557.0744540691376
aF558.0579609870911
aF559.0410470962524
aF560.0246050357819
aF561.0077459812164
aF561.9912791252136
aF562.9745221138
aF563.9579401016235
aF564.9410469532013
aF565.9245641231537
assS'DA'
p285
(dp286
g133
(lp287
F663.3927049636841
aF664.0570590496063
aF664.6905660629272
aF665.3572721481323
aF666.0236649513245
aF666.6572711467743
aF667.3240280151367
aF667.9904880523682
aF668.6238989830017
aF669.2905571460724
aF669.9570081233978
aF670.5905511379242
aF671.2572309970856
aF671.9236550331116
aF672.5572271347046
aF673.2238371372223
aF673.8904480934143
aF674.5240240097046
aF675.1905219554901
aF675.8569769859314
aF676.4905171394348
aF677.1571741104126
aF677.8236041069031
aF678.457160949707
aF679.1238150596619
aF679.7902400493622
aF680.4239971637726
aF681.0906131267548
aF681.7569119930267
aF682.3904480934143
aF683.0571310520172
aF683.7235560417175
aF684.357115983963
aF685.0237891674042
aF685.6903200149536
aF686.3237819671631
aF686.9905641078949
aF687.6568961143494
aF688.2904269695282
aF688.9570891857147
aF689.6235191822052
aF690.2570431232452
aF690.9237129688263
aF691.5901370048523
aF692.2237210273743
aF692.8903651237488
asg135
(lp288
(S'space'
p289
F665.939572095871
tp290
a(S'space'
p291
F666.85964012146
tp292
a(S'space'
p293
F667.7555501461029
tp294
a(S'space'
p295
F668.6996359825134
tp296
a(S'space'
p297
F669.715546131134
tp298
a(S'space'
p299
F670.7236399650574
tp300
a(S'space'
p301
F671.651524066925
tp302
a(S'space'
p303
F672.6433501243591
tp304
a(S'space'
p305
F673.6115319728851
tp306
a(S'space'
p307
F674.611340045929
tp308
a(S'space'
p309
F675.6036121845245
tp310
a(S'space'
p311
F676.5394201278687
tp312
a(S'space'
p313
F677.5075440406799
tp314
a(S'space'
p315
F678.4993860721588
tp316
a(S'space'
p317
F679.4194831848145
tp318
a(S'space'
p319
F680.4411110877991
tp320
a(S'space'
p321
F681.3954629898071
tp322
a(S'space'
p323
F682.3635621070862
tp324
a(S'space'
p325
F683.4069931507111
tp326
a(S'space'
p327
F684.3905279636383
tp328
a(S'space'
p329
F685.3797650337219
tp330
a(S'space'
p331
F686.3571670055389
tp332
a(S'space'
p333
F687.3554360866547
tp334
a(S'space'
p335
F688.3552451133728
tp336
a(S'space'
p337
F689.3394329547882
tp338
a(S'space'
p339
F690.3232321739197
tp340
a(S'space'
p341
F691.2434520721436
tp342
a(S'space'
p343
F692.2570841312408
tp344
asg197
(lp345
(S'left'
p346
F663.7157261371613
tp347
a(S'right'
p348
F663.7875380516052
tp349
a(S'left'
p350
F664.4907450675964
tp351
a(S'right'
p352
F665.1573979854584
tp353
a(S'left'
p354
F665.6836459636688
tp355
a(S'right'
p356
F666.4573981761932
tp357
a(S'left'
p358
F666.867388010025
tp359
a(S'right'
p360
F667.4516091346741
tp361
a(S'left'
p362
F668.067624092102
tp363
a(S'right'
p364
F668.7073831558228
tp365
a(S'left'
p366
F669.4356141090393
tp367
a(S'right'
p368
F670.0676820278168
tp369
a(S'left'
p370
F670.7313520908356
tp371
a(S'right'
p372
F671.3555819988251
tp373
a(S'left'
p374
F672.0036201477051
tp375
a(S'right'
p376
F672.6275911331177
tp377
a(S'left'
p378
F673.2995760440826
tp379
a(S'right'
p380
F673.9235181808472
tp381
a(S'left'
p382
F674.6036071777344
tp383
a(S'right'
p384
F675.2755770683289
tp385
a(S'left'
p386
F675.8995201587677
tp387
a(S'right'
p388
F676.5237369537354
tp389
a(S'left'
p390
F677.1875779628754
tp391
a(S'right'
p392
F677.8403580188751
tp393
a(S'left'
p394
F678.4919099807739
tp395
a(S'right'
p396
F679.0835390090942
tp397
a(S'left'
p398
F679.7634711265564
tp399
a(S'right'
p400
F680.4115800857544
tp401
a(S'left'
p402
F681.0755381584167
tp403
a(S'right'
p404
F681.7394549846649
tp405
a(S'left'
p406
F682.3792870044708
tp407
a(S'right'
p408
F683.0115120410919
tp409
a(S'left'
p410
F683.7154560089111
tp411
a(S'right'
p412
F684.373871088028
tp413
a(S'left'
p414
F685.0515170097351
tp415
a(S'right'
p416
F685.7075099945068
tp417
a(S'left'
p418
F686.3637380599976
tp419
a(S'right'
p420
F687.01948595047
tp421
a(S'left'
p422
F687.6794550418854
tp423
a(S'right'
p424
F688.3319239616394
tp425
a(S'left'
p426
F689.0114941596985
tp427
a(S'right'
p428
F689.6674971580505
tp429
a(S'left'
p430
F690.3155090808868
tp431
a(S'right'
p432
F690.9234609603882
tp433
a(S'left'
p434
F691.5713851451874
tp435
a(S'right'
p436
F692.2404110431671
tp437
a(S'left'
p438
F692.8754291534424
tp439
asg283
(lp440
F663.7237191200256
aF664.707218170166
aF665.6903419494629
aF666.6738080978394
aF667.6570081710815
aF668.6403629779816
aF669.6236591339111
aF670.6071879863739
aF671.590320110321
aF672.5736711025238
aF673.5569820404053
aF674.5403320789337
aF675.5236129760742
aF676.5069930553436
aF677.4902760982513
aF678.473610162735
aF679.4569170475006
aF680.4404079914093
aF681.4237160682678
aF682.4071021080017
aF683.39022397995
aF684.3739001750946
aF685.3568980693817
aF686.3404190540314
aF687.3236911296844
aF688.3070759773254
aF689.2901780605316
aF690.2736749649048
aF691.2568590641022
aF692.2404429912567
assS'T'
p441
(dp442
g5
(lp443
F147.87721395492554
aF148.41069316864014
aF148.94400310516357
aF149.47734808921814
aF150.01051115989685
aF150.54399704933167
aF151.07733702659607
aF151.6106550693512
aF152.14397501945496
aF152.6773431301117
aF153.21064400672913
aF153.74396896362305
aF154.27730798721313
aF154.81062817573547
aF155.34395909309387
aF155.87714505195618
aF156.41062712669373
aF156.94395208358765
aF157.47729897499084
aF158.01049613952637
aF158.54395508766174
aF159.07737612724304
aF159.6106140613556
aF160.14392614364624
aF160.6772861480713
aF161.21058917045593
aF161.74392914772034
aF162.27722597122192
aF162.8105709552765
aF163.34399914741516
aF163.87709712982178
aF164.41057705879211
aF164.94375109672546
aF165.4772219657898
aF166.01039004325867
aF166.54389810562134
aF167.0772361755371
aF167.61050701141357
aF168.1438491344452
aF168.67722702026367
aF169.21054005622864
aF169.7438440322876
aF170.277202129364
aF170.8104920387268
aF171.34385204315186
aF171.8770411014557
aF172.41051697731018
aF172.943696975708
aF173.4771831035614
aF174.01031017303467
aF174.54382395744324
aF175.0771861076355
aF175.61047315597534
aF176.1438159942627
aF176.67717599868774
aF177.2104799747467
aF177.74381518363953
aF178.27720713615417
aF178.81049418449402
aF179.34379601478577
asg7
(lp444
(S'return'
p445
F148.1942811012268
tp446
a(S'return'
p447
F148.735591173172
tp448
a(S'return'
p449
F149.2609281539917
tp450
a(S'return'
p451
F149.79438495635986
tp452
a(S'return'
p453
F150.02309799194336
tp454
a(S'return'
p455
F150.47116613388062
tp456
a(S'return'
p457
F150.99110317230225
tp458
a(S'return'
p459
F151.5430850982666
tp460
a(S'return'
p461
F152.04708695411682
tp462
a(S'return'
p463
F152.60715699195862
tp464
a(S'return'
p465
F153.14311695098877
tp466
a(S'return'
p467
F153.70308995246887
tp468
a(S'return'
p469
F154.239098072052
tp470
a(S'return'
p471
F154.78313517570496
tp472
a(S'return'
p473
F155.29508209228516
tp474
a(S'return'
p475
F155.8310670852661
tp476
a(S'return'
p477
F156.36713814735413
tp478
a(S'return'
p479
F156.88706398010254
tp480
a(S'return'
p481
F157.42304611206055
tp482
a(S'return'
p483
F157.9510371685028
tp484
a(S'return'
p485
F158.50311398506165
tp486
a(S'return'
p487
F159.03105115890503
tp488
a(S'return'
p489
F159.58306217193604
tp490
a(S'return'
p491
F160.12704515457153
tp492
a(S'return'
p493
F160.64710903167725
tp494
a(S'return'
p495
F161.1510419845581
tp496
a(S'return'
p497
F161.663024187088
tp498
a(S'return'
p499
F162.1750340461731
tp500
a(S'return'
p501
F162.6550850868225
tp502
a(S'return'
p503
F163.23905611038208
tp504
a(S'return'
p505
F163.84703612327576
tp506
a(S'return'
p507
F164.431077003479
tp508
a(S'return'
p509
F164.94384908676147
tp510
a(S'return'
p511
F165.4950361251831
tp512
a(S'return'
p513
F166.0950050354004
tp514
a(S'return'
p515
F166.86094498634338
tp516
a(S'return'
p517
F167.39427399635315
tp518
a(S'return'
p519
F167.66300010681152
tp520
a(S'return'
p521
F168.12697100639343
tp522
a(S'return'
p523
F168.58305096626282
tp524
a(S'return'
p525
F169.0950391292572
tp526
a(S'return'
p527
F169.67899203300476
tp528
a(S'return'
p529
F170.22300100326538
tp530
a(S'return'
p531
F170.76701498031616
tp532
a(S'return'
p533
F171.2710039615631
tp534
a(S'return'
p535
F171.90299916267395
tp536
a(S'return'
p537
F172.42303109169006
tp538
a(S'return'
p539
F172.9189419746399
tp540
a(S'return'
p541
F173.43093395233154
tp542
a(S'return'
p543
F173.95897912979126
tp544
a(S'return'
p545
F174.47899413108826
tp546
a(S'return'
p547
F175.0389301776886
tp548
a(S'return'
p549
F175.57491397857666
tp550
a(S'return'
p551
F176.15110611915588
tp552
a(S'return'
p553
F176.67728114128113
tp554
a(S'return'
p555
F177.19090604782104
tp556
a(S'return'
p557
F177.74391317367554
tp558
a(S'return'
p559
F178.25502610206604
tp560
a(S'return'
p561
F178.74295496940613
tp562
a(S'return'
p563
F179.29493403434753
tp564
a(S'return'
p565
F179.80692100524902
tp566
assS'D'
p567
(dp568
g133
(lp569
F382.47799706459045
aF383.14229011535645
aF383.7758641242981
aF384.4424991607666
aF385.10893511772156
aF385.7424919605255
aF386.4091110229492
aF387.07576513290405
aF387.70923709869385
aF388.3759870529175
aF389.0422201156616
aF389.67581605911255
aF390.34244894981384
aF391.0089690685272
aF391.6424021720886
aF392.30910897254944
aF392.9755721092224
aF393.60926508903503
aF394.27592396736145
aF394.9421670436859
aF395.57577896118164
aF396.2424011230469
aF396.9088571071625
aF397.54241394996643
aF398.2090721130371
aF398.8755211830139
aF399.5090420246124
aF400.1757261753082
aF400.84229707717896
aF401.4757080078125
aF402.1423771381378
aF402.8088150024414
aF403.4423460960388
aF404.1089961528778
aF404.77543210983276
aF405.4090211391449
aF406.0756530761719
aF406.7421040534973
aF407.37584114074707
aF408.0423150062561
aF408.7087490558624
aF409.3423171043396
aF410.0089430809021
aF410.67543506622314
aF411.30897212028503
aF411.97564816474915
asg135
(lp570
(S'space'
p571
F383.29360604286194
tp572
a(S'space'
p573
F384.4213299751282
tp574
a(S'space'
p575
F385.0776071548462
tp576
a(S'space'
p577
F385.5813310146332
tp578
a(S'space'
p579
F385.95729398727417
tp580
a(S'space'
p581
F386.4613001346588
tp582
a(S'space'
p583
F387.01353001594543
tp584
a(S'space'
p585
F388.4695210456848
tp586
a(S'space'
p587
F389.0855040550232
tp588
a(S'space'
p589
F391.7014629840851
tp590
a(S'space'
p591
F392.87564396858215
tp592
a(S'space'
p593
F393.6772520542145
tp594
a(S'space'
p595
F394.75740909576416
tp596
a(S'space'
p597
F396.0426321029663
tp598
a(S'space'
p599
F396.837443113327
tp600
a(S'space'
p601
F397.66149711608887
tp602
a(S'space'
p603
F398.7014510631561
tp604
a(S'space'
p605
F399.5257589817047
tp606
a(S'space'
p607
F400.557382106781
tp608
a(S'space'
p609
F401.4924011230469
tp610
a(S'space'
p611
F402.52535009384155
tp612
a(S'space'
p613
F403.4855179786682
tp614
a(S'space'
p615
F404.45889711380005
tp616
a(S'space'
p617
F405.3733899593353
tp618
a(S'space'
p619
F406.3493311405182
tp620
a(S'space'
p621
F407.3331561088562
tp622
a(S'space'
p623
F408.33330512046814
tp624
a(S'space'
p625
F409.31740617752075
tp626
a(S'space'
p627
F410.36564207077026
tp628
a(S'space'
p629
F411.2853970527649
tp630
asg197
(lp631
(S'right'
p632
F382.9096460342407
tp633
a(S'left'
p634
F383.5974531173706
tp635
a(S'right'
p636
F384.2426631450653
tp637
a(S'right'
p638
F385.5426540374756
tp639
a(S'left'
p640
F385.94951009750366
tp641
a(S'right'
p642
F386.45349311828613
tp643
a(S'right'
p644
F387.5093710422516
tp645
a(S'left'
p646
F387.5733230113983
tp647
a(S'right'
p648
F388.1761140823364
tp649
a(S'left'
p650
F388.98150610923767
tp651
a(S'right'
p652
F389.47593903541565
tp653
a(S'right'
p654
F390.1426270008087
tp655
a(S'left'
p656
F391.45388197898865
tp657
a(S'right'
p658
F392.1092441082001
tp659
a(S'left'
p660
F392.61348700523376
tp661
a(S'right'
p662
F393.1494331359863
tp663
a(S'left'
p664
F393.6694769859314
tp665
a(S'right'
p666
F394.51749300956726
tp667
a(S'left'
p668
F395.0693941116333
tp669
a(S'right'
p670
F395.733500957489
tp671
a(S'left'
p672
F396.48549008369446
tp673
a(S'right'
p674
F397.06136417388916
tp675
a(S'left'
p676
F397.6772229671478
tp677
a(S'right'
p678
F398.269474029541
tp679
a(S'left'
p680
F398.9493680000305
tp681
a(S'right'
p682
F399.4774639606476
tp683
a(S'left'
p684
F400.2134470939636
tp685
a(S'left'
p686
F400.36518907546997
tp687
a(S'right'
p688
F400.9253740310669
tp689
a(S'left'
p690
F401.5093801021576
tp691
a(S'right'
p692
F402.1814160346985
tp693
a(S'left'
p694
F402.9013440608978
tp695
a(S'right'
p696
F403.48169803619385
tp697
a(S'left'
p698
F404.125736951828
tp699
a(S'right'
p700
F404.79805517196655
tp701
a(S'left'
p702
F405.3891661167145
tp703
a(S'right'
p704
F406.0453910827637
tp705
a(S'left'
p706
F406.70932817459106
tp707
a(S'right'
p708
F407.32540798187256
tp709
a(S'left'
p710
F408.0590090751648
tp711
a(S'right'
p712
F408.69330406188965
tp713
a(S'left'
p714
F409.32514214515686
tp715
a(S'right'
p716
F410.03737211227417
tp717
a(S'left'
p718
F410.6921751499176
tp719
a(S'right'
p720
F411.29312109947205
tp721
a(S'left'
p722
F411.95736598968506
tp723
asg283
(lp724
F382.8089790344238
aF383.7924630641937
aF384.775591135025
aF385.7591199874878
aF386.7422490119934
aF387.725625038147
aF388.7088990211487
aF389.6924271583557
aF390.6755630970001
aF391.6589181423187
aF392.64218306541443
aF393.6255431175232
aF394.60899806022644
aF395.5923800468445
aF396.57553911209106
aF397.55888295173645
aF398.54216718673706
aF399.52578616142273
aF400.5089621543884
aF401.49244117736816
aF402.4755160808563
aF403.458997964859
aF404.44213104248047
aF405.4256341457367
aF406.40880012512207
aF407.3923110961914
aF408.3754880428314
aF409.35895895957947
aF410.342089176178
aF411.3256320953369
asssS'LH'
p725
(dp726
g3
(dp727
g5
(lp728
F297.2430441379547
aF297.77640199661255
aF298.30950713157654
aF298.84304118156433
aF299.3763301372528
aF299.90966796875
aF300.44284415245056
aF300.9763300418854
aF301.50964307785034
aF302.04300808906555
aF302.5763010978699
aF303.10961413383484
aF303.64297795295715
aF304.1762549877167
aF304.70961117744446
aF305.242959022522
aF305.7762870788574
aF306.30945205688477
aF306.8429651260376
aF307.37626814842224
aF307.90970396995544
aF308.4427890777588
aF308.9762601852417
aF309.5095920562744
aF310.0429530143738
aF310.5762221813202
aF311.10958099365234
aF311.6429350376129
aF312.17622804641724
aF312.70956206321716
aF313.24291610717773
aF313.7762279510498
aF314.30938601493835
aF314.8428900241852
aF315.376207113266
aF315.9095211029053
aF316.4427411556244
aF316.9762101173401
aF317.5095181465149
aF318.04287600517273
aF318.5761971473694
aF319.1095230579376
aF319.64287400245667
aF320.17615509033203
aF320.70950198173523
aF321.2428650856018
aF321.77616906166077
aF322.3093490600586
aF322.8428440093994
aF323.3761260509491
aF323.9094891548157
aF324.4426851272583
aF324.9761641025543
aF325.50948309898376
aF326.0428349971771
aF326.5761330127716
aF327.1094870567322
aF327.6428179740906
aF328.1761209964752
aF328.7095539569855
asg7
(lp729
(S'd'
p730
F297.560063123703
tp731
a(S'a'
p732
F298.0933539867401
tp733
a(S'd'
p734
F298.36611318588257
tp735
a(S'a'
p736
F298.77087903022766
tp737
a(S'd'
p738
F299.31812596321106
tp739
a(S'a'
p740
F299.84611415863037
tp741
a(S'd'
p742
F300.3980920314789
tp743
a(S'a'
p744
F300.9342269897461
tp745
a(S'd'
p746
F301.50974106788635
tp747
a(S'a'
p748
F301.9900629520416
tp749
a(S'd'
p750
F302.55806612968445
tp751
a(S'a'
p752
F303.03812408447266
tp753
a(S'd'
p754
F303.5900390148163
tp755
a(S'a'
p756
F304.1180500984192
tp757
a(S'd'
p758
F304.66204714775085
tp759
a(S'a'
p760
F305.1901090145111
tp761
a(S'd'
p762
F305.7341001033783
tp763
a(S'a'
p764
F306.26204895973206
tp765
a(S'd'
p766
F306.7980830669403
tp767
a(S'a'
p768
F307.28607201576233
tp769
a(S'd'
p770
F307.81404995918274
tp771
a(S'a'
p772
F308.35003995895386
tp773
a(S'd'
p774
F308.8780770301819
tp775
a(S'a'
p776
F309.390016078949
tp777
a(S'd'
p778
F309.9980239868164
tp779
a(S'a'
p780
F310.4860210418701
tp781
a(S'd'
p782
F311.00606203079224
tp783
a(S'a'
p784
F311.51801204681396
tp785
a(S'd'
p786
F312.0540111064911
tp787
a(S'a'
p788
F312.62200713157654
tp789
a(S'd'
p790
F313.0620529651642
tp791
a(S'a'
p792
F313.55993700027466
tp793
a(S'd'
p794
F314.12603306770325
tp795
a(S'a'
p796
F314.686007976532
tp797
a(S'd'
p798
F315.28604316711426
tp799
a(S'a'
p800
F315.72607803344727
tp801
a(S'd'
p802
F316.3579671382904
tp803
a(S'a'
p804
F316.8780071735382
tp805
a(S'd'
p806
F317.3979730606079
tp807
a(S'a'
p808
F317.87795996665955
tp809
a(S'd'
p810
F318.453978061676
tp811
a(S'a'
p812
F318.99000811576843
tp813
a(S'd'
p814
F319.47796416282654
tp815
a(S'a'
p816
F319.9979450702667
tp817
a(S'd'
p818
F320.5419600009918
tp819
a(S'a'
p820
F321.10999512672424
tp821
a(S'd'
p822
F321.6859381198883
tp823
a(S'a'
p824
F322.1339271068573
tp825
a(S'd'
p826
F322.7339310646057
tp827
a(S'a'
p828
F323.2139630317688
tp829
a(S'd'
p830
F323.79794216156006
tp831
a(S'a'
p832
F324.3179430961609
tp833
a(S'd'
p834
F324.88598704338074
tp835
a(S'a'
p836
F325.38990116119385
tp837
a(S'd'
p838
F325.93389916419983
tp839
a(S'a'
p840
F326.3598589897156
tp841
a(S'd'
p842
F327.00596499443054
tp843
a(S'a'
p844
F327.47789907455444
tp845
a(S'd'
p846
F328.03789806365967
tp847
a(S'a'
p848
F328.54987716674805
tp849
a(S'd'
p850
F329.1099410057068
tp851
assg131
(dp852
g133
(lp853
F600.209804058075
aF600.8741700649261
aF601.5076940059662
aF602.1743819713593
aF602.8407940864563
aF603.4743201732635
aF604.1409900188446
aF604.8074610233307
aF605.4409871101379
aF606.1078271865845
aF606.7742359638214
aF607.4076571464539
aF608.0743041038513
aF608.740846157074
aF609.3742799758911
aF610.0409600734711
aF610.7073819637299
aF611.3409550189972
aF612.0076069831848
aF612.6742141246796
aF613.3077471256256
aF613.9742629528046
aF614.6407120227814
aF615.2742531299591
aF615.9413061141968
aF616.6073789596558
aF617.240905046463
aF617.9075620174408
aF618.5741519927979
aF619.2078611850739
aF619.8743581771851
aF620.5406770706177
aF621.1742081642151
aF621.8408710956573
aF622.5073251724243
aF623.1408729553223
aF623.8075029850006
aF624.4739670753479
aF625.1076350212097
aF625.774188041687
aF626.4405951499939
aF627.0741670131683
aF627.7408201694489
aF628.4072821140289
aF629.0408461093903
aF629.7074811458588
asg135
(lp854
(S'return'
p855
F600.7743151187897
tp856
a(S'return'
p857
F601.9746870994568
tp858
a(S'return'
p859
F602.7159559726715
tp860
a(S'return'
p861
F603.58802318573
tp862
a(S'return'
p863
F604.548014163971
tp864
a(S'return'
p865
F605.5718250274658
tp866
a(S'return'
p867
F606.4839789867401
tp868
a(S'return'
p869
F607.4837920665741
tp870
a(S'return'
p871
F608.4300119876862
tp872
a(S'return'
p873
F609.4201099872589
tp874
a(S'return'
p875
F610.3639240264893
tp876
a(S'return'
p877
F611.3574371337891
tp878
a(S'return'
p879
F612.3239250183105
tp880
a(S'return'
p881
F613.355749130249
tp882
a(S'return'
p883
F614.3399691581726
tp884
a(S'return'
p885
F615.3159720897675
tp886
a(S'return'
p887
F616.2920961380005
tp888
a(S'return'
p889
F617.3399641513824
tp890
a(S'return'
p891
F618.2999200820923
tp892
a(S'return'
p893
F619.2919600009918
tp894
a(S'return'
p895
F620.1878461837769
tp896
a(S'return'
p897
F621.2076320648193
tp898
a(S'return'
p899
F622.1907429695129
tp900
a(S'return'
p901
F623.1582381725311
tp902
a(S'return'
p903
F624.139867067337
tp904
a(S'return'
p905
F625.1878991127014
tp906
a(S'return'
p907
F626.09987616539
tp908
a(S'return'
p909
F627.1558940410614
tp910
a(S'return'
p911
F628.1238510608673
tp912
a(S'return'
p913
F629.0998799800873
tp914
asg197
(lp915
(S'd'
p916
F601.9745941162109
tp917
a(S'a'
p918
F602.4200870990753
tp919
a(S'd'
p920
F603.003988981247
tp921
a(S'a'
p922
F603.5958180427551
tp923
a(S'd'
p924
F604.300096988678
tp925
a(S'a'
p926
F604.9240310192108
tp927
a(S'd'
p928
F605.5640320777893
tp929
a(S'a'
p930
F606.1720721721649
tp931
a(S'd'
p932
F606.8520021438599
tp933
a(S'a'
p934
F607.4760179519653
tp935
a(S'd'
p936
F608.1400740146637
tp937
a(S'a'
p938
F608.7719910144806
tp939
a(S'd'
p940
F609.4137749671936
tp941
a(S'a'
p942
F610.0635981559753
tp943
a(S'd'
p944
F610.7319631576538
tp945
a(S'a'
p946
F611.3399629592896
tp947
a(S'd'
p948
F612.0365130901337
tp949
a(S'a'
p950
F612.6909520626068
tp951
a(S'd'
p952
F613.3479881286621
tp953
a(S'a'
p954
F614.0120360851288
tp955
a(S'd'
p956
F614.6919550895691
tp957
a(S'a'
p958
F615.3237359523773
tp959
a(S'd'
p960
F616.0440421104431
tp961
a(S'a'
p962
F616.684005022049
tp963
a(S'd'
p964
F617.3477110862732
tp965
a(S'a'
p966
F617.9959990978241
tp967
a(S'd'
p968
F618.6439051628113
tp969
a(S'a'
p970
F619.2997109889984
tp971
a(S'd'
p972
F619.9400069713593
tp973
a(S'a'
p974
F620.5575120449066
tp975
a(S'd'
p976
F621.2138271331787
tp977
a(S'a'
p978
F621.8635721206665
tp979
a(S'd'
p980
F622.5240581035614
tp981
a(S'a'
p982
F623.1581749916077
tp983
a(S'd'
p984
F623.8439681529999
tp985
a(S'a'
p986
F624.4998681545258
tp987
a(S'd'
p988
F625.2116730213165
tp989
a(S'a'
p990
F625.790934085846
tp991
a(S'd'
p992
F626.47589802742
tp993
a(S'a'
p994
F627.1716551780701
tp995
a(S'd'
p996
F627.8519079685211
tp997
a(S'a'
p998
F628.4758310317993
tp999
a(S'd'
p1000
F629.1076490879059
tp1001
asg283
(lp1002
F600.5409650802612
aF601.5241520404816
aF602.5074510574341
aF603.4909541606903
aF604.4740920066833
aF605.457435131073
aF606.4407420158386
aF607.4241101741791
aF608.4074110984802
aF609.3907370567322
aF610.3740589618683
aF611.3574640750885
aF612.3407180309296
aF613.3242220878601
aF614.3074090480804
aF615.2906901836395
aF616.2740480899811
aF617.2575440406799
aF618.2406871318817
aF619.2241749763489
aF620.2073700428009
aF621.190859079361
aF622.1739921569824
aF623.1574800014496
aF624.1406440734863
aF625.1241500377655
aF626.1074650287628
aF627.0908241271973
aF628.0739641189575
aF629.057471036911
assg285
(dp1003
g133
(lp1004
F728.9423151016235
aF729.606595993042
aF730.240149974823
aF730.9067990779877
aF731.5732460021973
aF732.2068250179291
aF732.873505115509
aF733.5400130748749
aF734.1736199855804
aF734.8402540683746
aF735.5065631866455
aF736.1401109695435
aF736.8067760467529
aF737.4732251167297
aF738.1067321300507
aF738.7734291553497
aF739.43985414505
aF740.0735471248627
aF740.7402241230011
aF741.4065020084381
aF742.0400609970093
aF742.7067220211029
aF743.3731660842896
aF744.0066931247711
aF744.673367023468
aF745.3398129940033
aF745.9733650684357
aF746.6401200294495
aF747.3065941333771
aF747.9401481151581
aF748.6066801548004
aF749.2731101512909
aF749.9066619873047
aF750.5733439922333
aF751.2397751808167
aF751.8733341693878
aF752.5399870872498
aF753.2064089775085
aF753.8401019573212
aF754.5066251754761
aF755.1730921268463
aF755.806624174118
aF756.4732570648193
aF757.1397001743317
aF757.7733061313629
aF758.4399261474609
asg135
(lp1005
(S'return'
p1006
F731.403177022934
tp1007
a(S'return'
p1008
F732.3872389793396
tp1009
a(S'return'
p1010
F733.2751221656799
tp1011
a(S'return'
p1012
F734.2909569740295
tp1013
a(S'return'
p1014
F735.2111029624939
tp1015
a(S'return'
p1016
F736.2029490470886
tp1017
a(S'return'
p1018
F737.1566841602325
tp1019
a(S'return'
p1020
F738.171149969101
tp1021
a(S'return'
p1022
F739.0991010665894
tp1023
a(S'return'
p1024
F740.067134141922
tp1025
a(S'return'
p1026
F741.1150929927826
tp1027
a(S'return'
p1028
F742.139139175415
tp1029
a(S'return'
p1030
F743.0750839710236
tp1031
a(S'return'
p1032
F744.045706987381
tp1033
a(S'return'
p1034
F745.0030369758606
tp1035
a(S'return'
p1036
F746.0348689556122
tp1037
a(S'return'
p1038
F746.9550151824951
tp1039
a(S'return'
p1040
F747.9388601779938
tp1041
a(S'return'
p1042
F748.922993183136
tp1043
a(S'return'
p1044
F749.9233741760254
tp1045
a(S'return'
p1046
F750.8989980220795
tp1047
a(S'return'
p1048
F751.9066681861877
tp1049
a(S'return'
p1050
F752.8429811000824
tp1051
a(S'return'
p1052
F753.8350050449371
tp1053
a(S'return'
p1054
F754.8109691143036
tp1055
a(S'return'
p1056
F755.8233189582825
tp1057
a(S'return'
p1058
F756.8231720924377
tp1059
a(S'return'
p1060
F757.8066890239716
tp1061
asg197
(lp1062
(S'd'
p1063
F729.2900440692902
tp1064
a(S'a'
p1065
F730.0403230190277
tp1066
a(S'd'
p1067
F730.7070000171661
tp1068
a(S'a'
p1069
F731.0832340717316
tp1070
a(S'd'
p1071
F731.7311780452728
tp1072
a(S'a'
p1073
F732.3949711322784
tp1074
a(S'd'
p1075
F733.0272159576416
tp1076
a(S'a'
p1077
F733.643205165863
tp1078
a(S'd'
p1079
F734.2672300338745
tp1080
a(S'a'
p1081
F734.923189163208
tp1082
a(S'd'
p1083
F735.5792319774628
tp1084
a(S'a'
p1085
F736.1875441074371
tp1086
a(S'd'
p1087
F736.8752131462097
tp1088
a(S'a'
p1089
F737.5071620941162
tp1090
a(S'd'
p1091
F738.1789231300354
tp1092
a(S'a'
p1093
F738.7957279682159
tp1094
a(S'd'
p1095
F739.4565989971161
tp1096
a(S'd'
p1097
F740.7951941490173
tp1098
a(S'a'
p1099
F741.4511620998383
tp1100
a(S'd'
p1101
F742.1468811035156
tp1102
a(S'a'
p1103
F742.755166053772
tp1104
a(S'd'
p1105
F743.4191131591797
tp1106
a(S'a'
p1107
F744.058874130249
tp1108
a(S'd'
p1109
F744.7231621742249
tp1110
a(S'a'
p1111
F745.3711919784546
tp1112
a(S'd'
p1113
F746.0270960330963
tp1114
a(S'a'
p1115
F746.6626880168915
tp1116
a(S'd'
p1117
F747.3314180374146
tp1118
a(S'a'
p1119
F747.9230811595917
tp1120
a(S'd'
p1121
F748.6232299804688
tp1122
a(S'a'
p1123
F749.2898919582367
tp1124
a(S'd'
p1125
F749.9400761127472
tp1126
a(S'a'
p1127
F750.6111249923706
tp1128
a(S'd'
p1129
F751.2910561561584
tp1130
a(S'a'
p1131
F751.8900151252747
tp1132
a(S'd'
p1133
F752.515095949173
tp1134
a(S'a'
p1135
F753.1949961185455
tp1136
a(S'd'
p1137
F753.856616973877
tp1138
a(S'a'
p1139
F754.5314390659332
tp1140
a(S'd'
p1141
F755.1898281574249
tp1142
a(S'a'
p1143
F755.7950050830841
tp1144
a(S'd'
p1145
F756.5070819854736
tp1146
a(S'a'
p1147
F757.1564910411835
tp1148
a(S'd'
p1149
F757.7905690670013
tp1150
asg283
(lp1151
F729.2733051776886
aF730.2567660808563
aF731.2399230003357
aF732.2234461307526
aF733.2065560817719
aF734.1899220943451
aF735.1731951236725
aF736.1567270755768
aF737.1398730278015
aF738.1231989860535
aF739.1065080165863
aF740.0898599624634
aF741.0733590126038
aF742.0567021369934
aF743.039783000946
aF744.0231831073761
aF745.0064771175385
aF745.9899940490723
aF746.9733011722565
aF747.9566481113434
aF748.9397859573364
aF749.9234001636505
aF750.9064440727234
aF751.8900430202484
aF752.873104095459
aF753.856644153595
aF754.8397531509399
aF755.8233451843262
aF756.8063969612122
aF757.789880990982
assg441
(dp1152
g5
(lp1153
F197.4102120399475
aF197.94366812705994
aF198.4769971370697
aF199.0106611251831
aF199.54351615905762
aF200.07698512077332
aF200.6103241443634
aF201.1436460018158
aF201.67697596549988
aF202.21030807495117
aF202.74361300468445
aF203.2769651412964
aF203.81030416488647
aF204.34361600875854
aF204.87696409225464
aF205.41010904312134
aF205.94362998008728
aF206.4769401550293
aF207.01028895378113
aF207.54344701766968
aF208.07693600654602
aF208.61028409004211
aF209.1435830593109
aF209.67695999145508
aF210.21025013923645
aF210.74357199668884
aF211.27691102027893
aF211.81025910377502
aF212.34356498718262
aF212.87690806388855
aF213.4100980758667
aF213.94355702400208
aF214.4769310951233
aF215.01034212112427
aF215.54340505599976
aF216.0768849849701
aF216.61022114753723
aF217.14353895187378
aF217.67683911323547
aF218.21020913124084
aF218.74354004859924
aF219.27685618400574
aF219.81020998954773
aF220.34351515769958
aF220.87685298919678
aF221.41005396842957
aF221.94351315498352
aF222.47683215141296
aF223.0101671218872
aF223.5433611869812
aF224.0768280029297
aF224.61017107963562
aF225.1434781551361
aF225.67680501937866
aF226.21015214920044
aF226.74348902702332
aF227.27680706977844
aF227.81014204025269
aF228.34344816207886
aF228.87680006027222
asg7
(lp1154
(S'space'
p1155
F190.99905395507812
tp1156
a(S'space'
p1157
F197.72727799415588
tp1158
a(S'space'
p1159
F198.26076197624207
tp1160
a(S'space'
p1161
F198.7940490245819
tp1162
a(S'space'
p1163
F199.01075506210327
tp1164
a(S'space'
p1165
F199.47875905036926
tp1166
a(S'space'
p1167
F200.0387749671936
tp1168
a(S'space'
p1169
F200.48681807518005
tp1170
a(S'space'
p1171
F201.00674700737
tp1172
a(S'space'
p1173
F201.52674508094788
tp1174
a(S'space'
p1175
F202.03874015808105
tp1176
a(S'space'
p1177
F202.66282296180725
tp1178
a(S'space'
p1179
F203.15874314308167
tp1180
a(S'space'
p1181
F203.71071696281433
tp1182
a(S'space'
p1183
F204.254723072052
tp1184
a(S'space'
p1185
F204.830806016922
tp1186
a(S'space'
p1187
F205.3667140007019
tp1188
a(S'space'
p1189
F205.88669800758362
tp1190
a(S'space'
p1191
F206.40672898292542
tp1192
a(S'space'
p1193
F206.92677402496338
tp1194
a(S'space'
p1195
F207.4307279586792
tp1196
a(S'space'
p1197
F207.9667091369629
tp1198
a(S'space'
p1199
F208.48675513267517
tp1200
a(S'space'
p1201
F209.0306921005249
tp1202
a(S'space'
p1203
F209.5826771259308
tp1204
a(S'space'
p1205
F210.11068296432495
tp1206
a(S'space'
p1207
F210.646733045578
tp1208
a(S'space'
p1209
F211.19066905975342
tp1210
a(S'space'
p1211
F211.71066617965698
tp1212
a(S'space'
p1213
F212.2546570301056
tp1214
a(S'space'
p1215
F212.79873204231262
tp1216
a(S'space'
p1217
F213.3106529712677
tp1218
a(S'space'
p1219
F213.81464099884033
tp1220
a(S'space'
p1221
F214.31864213943481
tp1222
a(S'space'
p1223
F214.81471395492554
tp1224
a(S'space'
p1225
F215.398686170578
tp1226
a(S'space'
p1227
F215.91866302490234
tp1228
a(S'space'
p1229
F216.43864607810974
tp1230
a(S'space'
p1231
F217.0146930217743
tp1232
a(S'space'
p1233
F217.54269003868103
tp1234
a(S'space'
p1235
F218.08663702011108
tp1236
a(S'space'
p1237
F218.60668396949768
tp1238
a(S'space'
p1239
F219.10262298583984
tp1240
a(S'space'
p1241
F219.64661812782288
tp1242
a(S'space'
p1243
F220.2066080570221
tp1244
a(S'space'
p1245
F220.83868503570557
tp1246
a(S'space'
p1247
F221.35859298706055
tp1248
a(S'space'
p1249
F221.92659306526184
tp1250
a(S'space'
p1251
F222.4769251346588
tp1252
a(S'space'
p1253
F223.01661705970764
tp1254
a(S'space'
p1255
F223.54345703125
tp1256
a(S'space'
p1257
F224.08274006843567
tp1258
a(S'space'
p1259
F224.5746250152588
tp1260
a(S'space'
p1261
F225.11856198310852
tp1262
a(S'space'
p1263
F225.63055205345154
tp1264
a(S'space'
p1265
F226.1585500240326
tp1266
a(S'space'
p1267
F226.71060299873352
tp1268
a(S'space'
p1269
F227.25454115867615
tp1270
a(S'space'
p1271
F227.79053401947021
tp1272
a(S'space'
p1273
F228.32653403282166
tp1274
a(S'space'
p1275
F228.87690210342407
tp1276
assg567
(dp1277
g133
(lp1278
F456.32749700546265
aF456.99180603027344
aF457.62531304359436
aF458.2919771671295
aF458.9584410190582
aF459.59199810028076
aF460.25864911079407
aF460.9252371788025
aF461.5588011741638
aF462.2254400253296
aF462.8917570114136
aF463.52530002593994
aF464.19196009635925
aF464.8583881855011
aF465.4919521808624
aF466.15857911109924
aF466.82506012916565
aF467.45878505706787
aF468.12539315223694
aF468.79173398017883
aF469.42521810531616
aF470.09192395210266
aF470.75834703445435
aF471.3919131755829
aF472.0585889816284
aF472.72500109672546
aF473.35857701301575
aF474.02521896362305
aF474.69179797172546
aF475.32533502578735
aF475.9918761253357
aF476.6583180427551
aF477.29185795783997
aF477.9585340023041
aF478.62492203712463
aF479.25852513313293
aF479.92517709732056
aF480.59162998199463
aF481.22529315948486
aF481.891841173172
aF482.55826210975647
aF483.1918201446533
aF483.85848903656006
aF484.5249080657959
aF485.15846395492554
aF485.825129032135
asg135
(lp1279
(S'return'
p1280
F458.73302006721497
tp1281
a(S'return'
p1282
F459.68480610847473
tp1283
a(S'return'
p1284
F460.05882596969604
tp1285
a(S'return'
p1286
F460.6085000038147
tp1287
a(S'return'
p1288
F461.6051151752472
tp1289
a(S'return'
p1290
F462.57518100738525
tp1291
a(S'return'
p1292
F463.5420651435852
tp1293
a(S'return'
p1294
F464.54893803596497
tp1295
a(S'return'
p1296
F465.54106998443604
tp1297
a(S'return'
p1298
F466.52494406700134
tp1299
a(S'return'
p1300
F467.50089406967163
tp1301
a(S'return'
p1302
F468.48490595817566
tp1303
a(S'return'
p1304
F469.4690160751343
tp1305
a(S'return'
p1306
F470.44178915023804
tp1307
a(S'return'
p1308
F471.38100695610046
tp1309
a(S'return'
p1310
F472.7648751735687
tp1311
a(S'return'
p1312
F473.5807089805603
tp1313
a(S'return'
p1314
F474.46888399124146
tp1315
a(S'return'
p1316
F475.4607219696045
tp1317
a(S'return'
p1318
F476.38085317611694
tp1319
a(S'return'
p1320
F477.3889670372009
tp1321
a(S'return'
p1322
F478.32484698295593
tp1323
a(S'return'
p1324
F479.3086609840393
tp1325
a(S'return'
p1326
F480.275043964386
tp1327
a(S'return'
p1328
F481.2928819656372
tp1329
a(S'return'
p1330
F482.2416980266571
tp1331
a(S'return'
p1332
F483.2251570224762
tp1333
a(S'return'
p1334
F484.2141740322113
tp1335
a(S'return'
p1336
F485.1918420791626
tp1337
asg197
(lp1338
(S'a'
p1339
F458.4851200580597
tp1340
a(S'd'
p1341
F459.0610091686249
tp1342
a(S'a'
p1343
F459.67709016799927
tp1344
a(S'd'
p1345
F460.30102610588074
tp1346
a(S'a'
p1347
F460.9490041732788
tp1348
a(S'd'
p1349
F461.5978031158447
tp1350
a(S'a'
p1351
F462.24199295043945
tp1352
a(S'd'
p1353
F462.9329960346222
tp1354
a(S'a'
p1355
F463.54201006889343
tp1356
a(S'd'
p1357
F464.20906710624695
tp1358
a(S'a'
p1359
F464.88098907470703
tp1360
a(S'd'
p1361
F465.54876017570496
tp1362
a(S'a'
p1363
F466.1893620491028
tp1364
a(S'd'
p1365
F466.8849890232086
tp1366
a(S'a'
p1367
F467.49180817604065
tp1368
a(S'd'
p1369
F468.14198303222656
tp1370
a(S'a'
p1371
F468.8142249584198
tp1372
a(S'd'
p1373
F469.47673201560974
tp1374
a(S'a'
p1375
F470.0849680900574
tp1376
a(S'd'
p1377
F470.775141954422
tp1378
a(S'a'
p1379
F471.38871216773987
tp1380
a(S'a'
p1381
F472.380980014801
tp1382
a(S'd'
p1383
F472.4608290195465
tp1384
a(S'a'
p1385
F472.9407160282135
tp1386
a(S'd'
p1387
F473.57298612594604
tp1388
a(S'a'
p1389
F474.17294001579285
tp1390
a(S'd'
p1391
F474.82891607284546
tp1392
a(S'a'
p1393
F475.45297598838806
tp1394
a(S'd'
p1395
F476.08493304252625
tp1396
a(S'a'
p1397
F476.7488989830017
tp1398
a(S'd'
p1399
F477.3966791629791
tp1400
a(S'a'
p1401
F478.01289796829224
tp1402
a(S'd'
p1403
F478.68488097190857
tp1404
a(S'a'
p1405
F479.3012251853943
tp1406
a(S'd'
p1407
F479.9569180011749
tp1408
a(S'a'
p1409
F480.63687896728516
tp1410
a(S'd'
p1411
F481.3006739616394
tp1412
a(S'a'
p1413
F481.9085521697998
tp1414
a(S'd'
p1415
F482.5888330936432
tp1416
a(S'a'
p1417
F483.2252061367035
tp1418
a(S'd'
p1419
F483.8811831474304
tp1420
a(S'a'
p1421
F484.55683398246765
tp1422
a(S'd'
p1423
F485.204754114151
tp1424
a(S'a'
p1425
F485.80488109588623
tp1426
asg283
(lp1427
F456.6584930419922
aF457.6419949531555
aF458.6250660419464
aF459.6086151599884
aF460.5917601585388
aF461.5750730037689
aF462.5583920478821
aF463.54208517074585
aF464.52504801750183
aF465.5084240436554
aF466.4916980266571
aF467.47507309913635
aF468.4585151672363
aF469.4419000148773
aF470.424996137619
aF471.4083650112152
aF472.3916871547699
aF473.3751850128174
aF474.3584761619568
aF475.341835975647
aF476.32497215270996
aF477.30845308303833
aF478.2916581630707
aF479.27514696121216
aF480.2583010196686
aF481.24179911613464
aF482.2249050140381
aF483.20841097831726
aF484.1916129589081
aF485.1750910282135
asss.