(dp0
S'RH'
p1
(dp2
S'A'
p3
(dp4
S'S'
p5
(lp6
F372.10021901130676
aF372.6337068080902
aF373.1671929359436
aF373.70067381858826
aF374.2342929840088
aF374.7678129673004
aF375.30117893218994
aF375.83462595939636
aF376.368036031723
aF376.9015259742737
aF377.4351499080658
aF377.96851086616516
aF378.5019898414612
aF379.0354950428009
aF379.568993806839
aF380.10266399383545
aF380.63613295555115
aF381.16960191726685
aF381.7031319141388
aF382.2366609573364
aF382.7701199054718
aF383.3036198616028
aF383.83708786964417
aF384.3706040382385
aF384.90407490730286
aF385.437686920166
aF385.97107791900635
aF386.5046398639679
aF387.03808999061584
aF387.57161498069763
aF388.10522985458374
aF388.6385328769684
aF389.1720688343048
aF389.7056658267975
aF390.2391188144684
aF390.77259588241577
aF391.30601692199707
asS'M'
p7
(lp8
(S'left'
p9
F373.1753418445587
tp10
a(S'left'
p11
F373.66291785240173
tp12
a(S'right'
p13
F374.0181670188904
tp14
a(S'right'
p15
F374.3109278678894
tp16
a(S'left'
p17
F374.5517590045929
tp18
a(S'left'
p19
F375.08507680892944
tp20
a(S'left'
p21
F375.6185870170593
tp22
a(S'right'
p23
F375.79090785980225
tp24
a(S'left'
p25
F376.375205039978
tp26
a(S'left'
p27
F376.71925497055054
tp28
a(S'right'
p29
F376.95921182632446
tp30
a(S'left'
p31
F377.28724193573
tp32
a(S'left'
p33
F377.83922481536865
tp34
a(S'right'
p35
F378.28573989868164
tp36
a(S'right'
p37
F378.9112458229065
tp38
a(S'left'
p39
F379.35259890556335
tp40
a(S'left'
p41
F379.88609981536865
tp42
a(S'right'
p43
F380.10285091400146
tp44
a(S'left'
p45
F380.4231879711151
tp46
a(S'right'
p47
F380.95385003089905
tp48
a(S'left'
p49
F381.18287897109985
tp50
a(S'right'
p51
F381.6548409461975
tp52
a(S'left'
p53
F382.1271548271179
tp54
a(S'right'
p55
F382.73484086990356
tp56
a(S'left'
p57
F383.1751539707184
tp58
a(S'right'
p59
F383.7188308238983
tp60
a(S'left'
p61
F384.1991238594055
tp62
a(S'right'
p63
F384.687992811203
tp64
a(S'left'
p65
F385.22154784202576
tp66
a(S'right'
p67
F385.7550518512726
tp68
a(S'left'
p69
F386.2885799407959
tp70
a(S'right'
p71
F386.52683782577515
tp72
a(S'left'
p73
F386.8223178386688
tp74
a(S'right'
p75
F387.35570883750916
tp76
a(S'left'
p77
F387.65481400489807
tp78
a(S'right'
p79
F388.4226748943329
tp80
a(S'left'
p81
F388.67880487442017
tp82
a(S'right'
p83
F389.4893958568573
tp84
a(S'left'
p85
F390.0229699611664
tp86
a(S'right'
p87
F390.55656599998474
tp88
a(S'left'
p89
F391.0900328159332
tp90
assS'DT'
p91
(dp92
S'AS'
p93
(lp94
F722.5089869499207
aF723.1741409301758
aF723.8079519271851
aF724.4747879505157
aF725.1414058208466
aF725.7752938270569
aF726.4420850276947
aF727.1086959838867
aF727.7424788475037
aF728.4093818664551
aF729.0759589672089
aF729.7097089290619
aF730.3765740394592
aF731.0432369709015
aF731.6769759654999
aF732.3438520431519
aF733.010491847992
aF733.6442699432373
aF734.3111388683319
aF734.9777729511261
aF735.6116688251495
aF736.2784848213196
aF736.9451329708099
asS'TM'
p95
(lp96
(S'return'
p97
F723.6084668636322
tp98
a(S'return'
p99
F724.275230884552
tp100
a(S'return'
p101
F725.0524909496307
tp102
a(S'return'
p103
F725.9800629615784
tp104
a(S'return'
p105
F726.7080249786377
tp106
a(S'return'
p107
F727.5429220199585
tp108
a(S'return'
p109
F728.2101030349731
tp110
a(S'return'
p111
F728.6840059757233
tp112
a(S'return'
p113
F729.5101079940796
tp114
a(S'return'
p115
F729.5719728469849
tp116
a(S'return'
p117
F730.2123148441315
tp118
a(S'return'
p119
F731.4774179458618
tp120
a(S'return'
p121
F732.1443569660187
tp122
a(S'return'
p123
F733.0039989948273
tp124
a(S'return'
p125
F733.89497590065
tp126
a(S'return'
p127
F734.5799708366394
tp128
a(S'return'
p129
F735.1480429172516
tp130
a(S'return'
p131
F736.0787169933319
tp132
a(S'return'
p133
F736.7639148235321
tp134
asS'AM'
p135
(lp136
(S'd'
p137
F723.1240780353546
tp138
a(S'a'
p139
F723.8600578308105
tp140
a(S'd'
p141
F724.7086699008942
tp142
a(S'a'
p143
F725.5757369995117
tp144
a(S'a'
p145
F726.3479998111725
tp146
a(S'd'
p147
F727.0088129043579
tp148
a(S'a'
p149
F728.2923109531403
tp150
a(S'd'
p151
F729.8999669551849
tp152
a(S'a'
p153
F730.8360059261322
tp154
a(S'd'
p155
F731.1319789886475
tp156
a(S'a'
p157
F732.7399709224701
tp158
a(S'd'
p159
F733.4446840286255
tp160
a(S'a'
p161
F734.2359449863434
tp162
a(S'd'
p163
F735.723953962326
tp164
a(S'a'
p165
F736.5559389591217
tp166
asS'TS'
p167
(lp168
F722.840765953064
aF723.8244409561157
aF724.8079919815063
aF725.7916729450226
aF726.7753598690033
aF727.7590718269348
aF728.7425148487091
aF729.7261979579926
aF730.7099249362946
aF731.6934509277344
aF732.6770579814911
aF733.6608138084412
aF734.6444718837738
aF735.6281549930573
aF736.6116528511047
assS'DA'
p169
(dp170
g93
(lp171
F853.5823709964752
aF854.2475099563599
aF854.8812618255615
aF855.5483238697052
aF856.2148249149323
aF856.8485059738159
aF857.5154349803925
aF858.1819448471069
aF858.8155930042267
aF859.482507944107
aF860.1494138240814
aF860.783035993576
aF861.4500210285187
aF862.1165878772736
aF862.7505338191986
aF863.4171829223633
aF864.0838329792023
aF864.7176380157471
aF865.3845889568329
aF866.0511839389801
aF866.6849849224091
aF867.351714849472
aF868.0186278820038
asg95
(lp172
(S'return'
p173
F854.6816618442535
tp174
a(S'return'
p175
F855.3488528728485
tp176
a(S'return'
p177
F856.1552920341492
tp178
a(S'return'
p179
F857.3312919139862
tp180
a(S'return'
p181
F858.3952820301056
tp182
a(S'return'
p183
F859.4272298812866
tp184
a(S'return'
p185
F860.347244977951
tp186
a(S'return'
p187
F861.3552119731903
tp188
a(S'return'
p189
F862.5509729385376
tp190
a(S'return'
p191
F863.2427799701691
tp192
a(S'return'
p193
F864.518070936203
tp194
a(S'return'
p195
F865.5948588848114
tp196
a(S'return'
p197
F866.4854259490967
tp198
a(S'return'
p199
F867.152349948883
tp200
asg135
(lp201
(S'a'
p202
F854.1310048103333
tp203
a(S'd'
p204
F854.3309609889984
tp205
a(S'a'
p206
F855.0109689235687
tp207
a(S'a'
p208
F856.0912389755249
tp209
a(S'd'
p210
F856.94726395607
tp211
a(S'a'
p212
F857.9072818756104
tp213
a(S'd'
p214
F859.2826628684998
tp215
a(S'a'
p216
F859.9392759799957
tp217
a(S'd'
p218
F860.2912499904633
tp219
a(S'a'
p220
F861.2505779266357
tp221
a(S'd'
p222
F862.0909240245819
tp223
a(S'a'
p224
F862.766988992691
tp225
a(S'd'
p226
F863.2176678180695
tp227
a(S'a'
p228
F863.8349058628082
tp229
a(S'd'
p230
F864.9148828983307
tp231
a(S'a'
p232
F865.3388669490814
tp233
a(S'd'
p234
F866.234885931015
tp235
a(S'a'
p236
F866.8988718986511
tp237
a(S'd'
p238
F867.8588650226593
tp239
asg167
(lp240
F853.9141240119934
aF854.8979468345642
aF855.8812699317932
aF856.8649868965149
aF857.8486859798431
aF858.8323650360107
aF859.8187730312347
aF860.7996518611908
aF861.7832329273224
aF862.7670278549194
aF863.7504589557648
aF864.7341170310974
aF865.717738866806
aF866.7015390396118
aF867.6850409507751
assS'T'
p241
(dp242
g5
(lp243
F155.6842658519745
aF156.21751189231873
aF156.75102996826172
aF157.28451490402222
aF157.81803798675537
aF158.35152196884155
aF158.88501596450806
aF159.41835594177246
aF159.95205998420715
aF160.48549604415894
aF161.01899600028992
aF161.5527539253235
aF162.08615803718567
aF162.6197168827057
aF163.1531150341034
aF163.6866579055786
aF164.22009682655334
aF164.7534658908844
aF165.28707790374756
aF165.82049894332886
aF166.35409998893738
aF166.88743495941162
aF167.420893907547
aF167.95441699028015
aF168.48811197280884
aF169.02142596244812
aF169.55495882034302
aF170.08841180801392
aF170.62191486358643
aF171.1554470062256
aF171.68917202949524
aF172.222482919693
aF172.75606083869934
aF173.28942489624023
aF173.82289290428162
aF174.35652494430542
aF174.890154838562
asg7
(lp244
(S'return'
p245
F159.42566299438477
tp246
a(S'return'
p247
F163.72065997123718
tp248
a(S'return'
p249
F165.36866903305054
tp250
a(S'return'
p251
F165.84866499900818
tp252
a(S'return'
p253
F166.39267897605896
tp254
assS'D'
p255
(dp256
g93
(lp257
F555.0244379043579
aF555.6896150112152
aF556.3234088420868
aF556.9899818897247
aF557.6569058895111
aF558.2905600070953
aF558.9573078155518
aF559.6242079734802
aF560.2578718662262
aF560.9246180057526
aF561.5914180278778
aF562.2249729633331
aF562.892040014267
aF563.5588479042053
aF564.1926348209381
aF564.8593499660492
aF565.5261099338531
aF566.1598408222198
aF566.8265998363495
aF567.4932730197906
aF568.1272568702698
aF568.7939298152924
aF569.4605250358582
asg95
(lp258
(S'return'
p259
F556.1235749721527
tp260
a(S'return'
p261
F557.5177578926086
tp262
a(S'return'
p263
F558.4058759212494
tp264
a(S'return'
p265
F559.2537519931793
tp266
a(S'return'
p267
F560.7250399589539
tp268
a(S'return'
p269
F561.7413749694824
tp270
a(S'return'
p271
F562.6925308704376
tp272
a(S'return'
p273
F563.9930708408356
tp274
a(S'return'
p275
F564.6597838401794
tp276
a(S'return'
p277
F565.1573560237885
tp278
a(S'return'
p279
F565.5733599662781
tp280
a(S'return'
p281
F566.0772349834442
tp282
a(S'return'
p283
F567.7012920379639
tp284
a(S'return'
p285
F568.6136298179626
tp286
asg135
(lp287
(S'd'
p288
F555.5897388458252
tp289
a(S'd'
p290
F557.1177349090576
tp291
a(S'a'
p292
F558.0907139778137
tp293
a(S'a'
p294
F558.8777549266815
tp295
a(S'd'
p296
F559.765722990036
tp297
a(S'a'
p298
F560.2377598285675
tp299
a(S'd'
p300
F561.2373998165131
tp301
a(S'd'
p302
F563.5573778152466
tp303
a(S'a'
p304
F564.077654838562
tp305
a(S'd'
p306
F565.1651928424835
tp307
a(S'a'
p308
F565.6692419052124
tp309
a(S'd'
p310
F566.0533509254456
tp311
a(S'a'
p312
F567.0933640003204
tp313
a(S'd'
p314
F567.4133839607239
tp315
a(S'a'
p316
F568.1253349781036
tp317
a(S'a'
p318
F569.1440358161926
tp319
asg167
(lp320
F555.356428861618
aF556.340057849884
aF557.3234870433807
aF558.3071548938751
aF559.290757894516
aF560.2743368148804
aF561.258024930954
aF562.2417600154877
aF563.2253940105438
aF564.2089819908142
aF565.1925439834595
aF566.1762068271637
aF567.1597490310669
aF568.1435668468475
aF569.1269068717957
asssS'LH'
p321
(dp322
g3
(dp323
g5
(lp324
F439.4541280269623
aF439.9875910282135
aF440.52121901512146
aF441.05460500717163
aF441.5881199836731
aF442.12157583236694
aF442.6550929546356
aF443.18859696388245
aF443.7222099304199
aF444.25558280944824
aF444.7890770435333
aF445.32257199287415
aF445.85621190071106
aF446.3896470069885
aF446.9230468273163
aF447.45653080940247
aF447.9900789260864
aF448.5235629081726
aF449.05715703964233
aF449.59053897857666
aF450.1240258216858
aF450.657546043396
aF451.19105887413025
aF451.72456192970276
aF452.2580659389496
aF452.7915189266205
aF453.32501792907715
aF453.8585820198059
aF454.3920090198517
aF454.92599987983704
aF455.4591429233551
aF455.99264192581177
aF456.525995016098
aF457.0594599246979
aF457.5929968357086
aF458.1264889240265
aF458.65999484062195
asg7
(lp325
(S'd'
p326
F440.01438999176025
tp327
a(S'a'
p328
F440.42238688468933
tp329
a(S'd'
p330
F440.8386278152466
tp331
a(S'a'
p332
F441.42239785194397
tp333
a(S'd'
p334
F441.90557289123535
tp335
a(S'a'
p336
F442.44770884513855
tp337
a(S'd'
p338
F442.9823958873749
tp339
a(S'a'
p340
F443.5060019493103
tp341
a(S'd'
p342
F444.04055881500244
tp343
a(S'a'
p344
F444.57316303253174
tp345
a(S'd'
p346
F445.15865087509155
tp347
a(S'a'
p348
F445.64002895355225
tp349
a(S'd'
p350
F446.17352390289307
tp351
a(S'a'
p352
F446.7070620059967
tp353
a(S'd'
p354
F447.24050402641296
tp355
a(S'a'
p356
F447.7739508152008
tp357
a(S'd'
p358
F448.30747389793396
tp359
a(S'a'
p360
F448.84116792678833
tp361
a(S'd'
p362
F449.3744490146637
tp363
a(S'a'
p364
F449.90832781791687
tp365
a(S'd'
p366
F450.4414429664612
tp367
a(S'a'
p368
F450.98453092575073
tp369
a(S'd'
p370
F451.56659293174744
tp371
a(S'a'
p372
F452.04209184646606
tp373
a(S'd'
p374
F452.5754039287567
tp375
a(S'a'
p376
F453.10899782180786
tp377
a(S'd'
p378
F453.67031502723694
tp379
a(S'a'
p380
F454.17587900161743
tp381
a(S'd'
p382
F454.70948600769043
tp383
a(S'a'
p384
F455.24299597740173
tp385
a(S'd'
p386
F455.7764689922333
tp387
a(S'a'
p388
F456.3099548816681
tp389
a(S'd'
p390
F456.843199968338
tp391
a(S'a'
p392
F457.3770909309387
tp393
a(S'd'
p394
F457.91044998168945
tp395
a(S'a'
p396
F458.2222468852997
tp397
a(S'd'
p398
F458.977383852005
tp399
assg91
(dp400
g93
(lp401
sg95
(lp402
sg135
(lp403
sg167
(lp404
ssg169
(dp405
g93
(lp406
sg95
(lp407
sg135
(lp408
sg167
(lp409
ssg241
(dp410
g5
(lp411
F250.57979083061218
aF251.11325001716614
aF251.6466908454895
aF252.18021082878113
aF252.71366000175476
aF253.24730682373047
aF253.78069686889648
aF254.31421899795532
aF254.847806930542
aF255.38116002082825
aF255.91473484039307
aF256.4479978084564
aF256.98155093193054
aF257.5149748325348
aF258.04852199554443
aF258.58215284347534
aF259.1154329776764
aF259.64900398254395
aF260.1826448440552
aF260.71628499031067
aF261.24963903427124
aF261.78326392173767
aF262.31663393974304
aF262.85013699531555
aF263.3837158679962
aF263.91709303855896
aF264.45060300827026
aF264.98406982421875
aF265.51758885383606
aF266.0511050224304
aF266.58485293388367
aF267.11811089515686
aF267.65159487724304
aF268.18510389328003
aF268.71858382225037
aF269.2520818710327
aF269.78553581237793
asg7
(lp412
(S'space'
p413
F251.4306080341339
tp414
a(S'space'
p415
F251.96429300308228
tp416
a(S'space'
p417
F252.23992490768433
tp418
a(S'space'
p419
F252.76792693138123
tp420
a(S'space'
p421
F253.2562198638916
tp422
a(S'space'
p423
F253.7599220275879
tp424
a(S'space'
p425
F254.2559049129486
tp426
a(S'space'
p427
F254.76790690422058
tp428
a(S'space'
p429
F255.30389595031738
tp430
a(S'space'
p431
F255.8398928642273
tp432
a(S'space'
p433
F256.3442189693451
tp434
a(S'space'
p435
F256.98174595832825
tp436
a(S'space'
p437
F257.8321189880371
tp438
a(S'space'
p439
F258.36560797691345
tp440
a(S'space'
p441
F258.8991479873657
tp442
a(S'space'
p443
F259.43258595466614
tp444
a(S'space'
p445
F259.9660999774933
tp446
a(S'space'
p447
F260.4996118545532
tp448
a(S'space'
p449
F261.0336809158325
tp450
a(S'space'
p451
F261.5921528339386
tp452
a(S'space'
p453
F262.15985202789307
tp454
a(S'space'
p455
F262.7278528213501
tp456
a(S'space'
p457
F263.24783992767334
tp458
a(S'space'
p459
F263.75983691215515
tp460
a(S'space'
p461
F264.2798309326172
tp462
a(S'space'
p463
F264.82386684417725
tp464
a(S'space'
p465
F265.44783186912537
tp466
a(S'space'
p467
F265.9678189754486
tp468
a(S'space'
p469
F266.49580693244934
tp470
a(S'space'
p471
F267.0398168563843
tp472
a(S'space'
p473
F267.5677878856659
tp474
a(S'space'
p475
F268.1197919845581
tp476
a(S'space'
p477
F268.6237778663635
tp478
a(S'space'
p479
F269.1757698059082
tp480
a(S'space'
p481
F269.6640729904175
tp482
a(S'space'
p483
F270.20776295661926
tp484
assg255
(dp485
g93
(lp486
sg95
(lp487
sg135
(lp488
sg167
(lp489
sss.