(dp0
S'RH'
p1
(dp2
S'A'
p3
(dp4
S'S'
p5
(lp6
F240.63202691078186
aF241.16517281532288
aF241.6984419822693
aF242.23176980018616
aF242.76509594917297
aF243.2984299659729
aF243.8317518234253
aF244.36508178710938
aF244.89841198921204
aF245.43173694610596
aF245.9650638103485
aF246.49839687347412
aF247.03191995620728
aF247.56504893302917
aF248.09837889671326
aF248.6317069530487
aF249.16503190994263
aF249.69836378097534
aF250.23168992996216
aF250.76501893997192
aF251.298348903656
aF251.83167481422424
aF252.36500096321106
aF252.89833283424377
aF253.4316589832306
aF253.9651849269867
aF254.49831986427307
aF255.03164196014404
aF255.56497192382812
aF256.0983018875122
aF256.6316268444061
aF257.1649549007416
aF257.6982867717743
aF258.2316098213196
aF258.7649447917938
aF259.29827189445496
aF259.8315939903259
aF260.3649230003357
aF260.8982558250427
aF261.4315779209137
aF261.96510887145996
aF262.4982419013977
aF263.0315639972687
aF263.56489396095276
aF264.09822487831116
aF264.6315507888794
aF265.16488099098206
aF265.69821095466614
aF266.23153591156006
aF266.7648639678955
aF267.2981917858124
aF267.8315188884735
aF268.36484384536743
aF268.89838099479675
aF269.4315028190613
aF269.96483087539673
aF270.4981617927551
aF271.0314869880676
aF271.5648159980774
aF272.0981488227844
asS'M'
p7
(lp8
(S'right'
p9
F241.0688397884369
tp10
a(S'left'
p11
F241.4820318222046
tp12
a(S'right'
p13
F242.01544094085693
tp14
a(S'left'
p15
F242.5486879348755
tp16
a(S'right'
p17
F242.79679679870605
tp18
a(S'left'
p19
F243.30083584785461
tp20
a(S'right'
p21
F243.78878784179688
tp22
a(S'left'
p23
F244.37283492088318
tp24
a(S'right'
p25
F244.9487907886505
tp26
a(S'left'
p27
F245.46880078315735
tp28
a(S'right'
p29
F246.04479885101318
tp30
a(S'left'
p31
F246.58878684043884
tp32
a(S'right'
p33
F247.34863877296448
tp34
a(S'left'
p35
F247.62080192565918
tp36
a(S'right'
p37
F248.15679693222046
tp38
a(S'left'
p39
F248.6767919063568
tp40
a(S'right'
p41
F249.22878789901733
tp42
a(S'left'
p43
F249.74879693984985
tp44
a(S'right'
p45
F250.28478598594666
tp46
a(S'left'
p47
F250.80479979515076
tp48
a(S'right'
p49
F251.32480192184448
tp50
a(S'left'
p51
F251.86080193519592
tp52
a(S'right'
p53
F252.39679884910583
tp54
a(S'left'
p55
F252.91679978370667
tp56
a(S'right'
p57
F253.452800989151
tp58
a(S'left'
p59
F253.96524691581726
tp60
a(S'right'
p61
F254.46879196166992
tp62
a(S'left'
p63
F254.93279099464417
tp64
a(S'right'
p65
F255.54896593093872
tp66
a(S'left'
p67
F256.0447988510132
tp68
a(S'right'
p69
F256.6047909259796
tp70
a(S'left'
p71
F257.1650159358978
tp72
a(S'right'
p73
F257.74085688591003
tp74
a(S'left'
p75
F258.30082297325134
tp76
a(S'right'
p77
F258.836797952652
tp78
a(S'left'
p79
F259.37279295921326
tp80
a(S'right'
p81
F259.8927938938141
tp82
a(S'left'
p83
F260.4127938747406
tp84
a(S'right'
p85
F260.9647870063782
tp86
a(S'left'
p87
F261.46880292892456
tp88
a(S'right'
p89
F262.0048038959503
tp90
a(S'left'
p91
F262.8151879310608
tp92
a(S'right'
p93
F263.34848380088806
tp94
a(S'left'
p95
F263.6368029117584
tp96
a(S'right'
p97
F264.172789812088
tp98
a(S'left'
p99
F264.71680188179016
tp100
a(S'right'
p101
F265.48181796073914
tp102
a(S'left'
p103
F266.01516795158386
tp104
a(S'right'
p105
F266.3248019218445
tp106
a(S'left'
p107
F266.86080288887024
tp108
a(S'right'
p109
F267.3568048477173
tp110
a(S'left'
p111
F267.9167969226837
tp112
a(S'right'
p113
F268.4367949962616
tp114
a(S'left'
p115
F269.2151348590851
tp116
a(S'right'
p117
F269.7484200000763
tp118
a(S'left'
p119
F270.28178191185
tp120
a(S'right'
p121
F270.8151159286499
tp122
a(S'left'
p123
F271.3484048843384
tp124
a(S'right'
p125
F271.8817718029022
tp126
a(S'left'
p127
F272.41509795188904
tp128
assS'DT'
p129
(dp130
S'AS'
p131
(lp132
F478.24840784072876
aF478.91280698776245
aF479.54634189605713
aF480.2129969596863
aF480.87945199012756
aF481.51297092437744
aF482.1796898841858
aF482.8460998535156
aF483.4796109199524
aF484.146283864975
aF484.8127579689026
aF485.44628286361694
aF486.1129288673401
aF486.77939200401306
aF487.4129128456116
aF488.0796389579773
aF488.7460479736328
aF489.37957787513733
aF490.0460979938507
aF490.71267890930176
aF491.3462188243866
aF492.01288199424744
aF492.6793339252472
aF493.3128619194031
aF493.9795808792114
aF494.6459867954254
aF495.279504776001
aF495.94616889953613
aF496.61263394355774
aF497.24615383148193
aF497.9128119945526
aF498.5792717933655
aF499.21280789375305
aF499.8795289993286
aF500.54592394828796
aF501.17945194244385
aF501.84610390663147
aF502.5125768184662
aF503.1461179256439
aF503.8127589225769
aF504.4792158603668
aF505.1127579212189
aF505.7794589996338
aF506.44587087631226
aF507.0793948173523
aF507.7460479736328
asS'TM'
p133
(lp134
(S'space'
p135
F478.9329309463501
tp136
a(S'space'
p137
F480.0130829811096
tp138
a(S'space'
p139
F480.7967598438263
tp140
a(S'space'
p141
F481.97979187965393
tp142
a(S'space'
p143
F482.7247989177704
tp144
a(S'space'
p145
F483.6613759994507
tp146
a(S'space'
p147
F484.64493584632874
tp148
a(S'space'
p149
F485.61337184906006
tp150
a(S'space'
p151
F486.5728998184204
tp152
a(S'space'
p153
F487.5570487976074
tp154
a(S'space'
p155
F488.5407838821411
tp156
a(S'space'
p157
F489.5410678386688
tp158
a(S'space'
p159
F490.9088809490204
tp160
a(S'space'
p161
F491.81293177604675
tp162
a(S'space'
p163
F492.70101380348206
tp164
a(S'space'
p165
F493.77967381477356
tp166
a(S'space'
p167
F495.746230840683
tp168
a(S'space'
p169
F496.6373598575592
tp170
a(S'space'
p171
F497.7128748893738
tp172
a(S'space'
p173
F499.67961382865906
tp174
a(S'space'
p175
F500.46075892448425
tp176
a(S'space'
p177
F501.646164894104
tp178
a(S'space'
p179
F502.36478877067566
tp180
a(S'space'
p181
F503.3959889411926
tp182
a(S'space'
p183
F504.3329048156738
tp184
a(S'space'
p185
F505.3335700035095
tp186
a(S'space'
p187
F507.29328894615173
tp188
asS'AM'
p189
(lp190
(S'right'
p191
F478.6771638393402
tp192
a(S'left'
p193
F479.34641289711
tp194
a(S'right'
p195
F480.01315093040466
tp196
a(S'left'
p197
F480.5008227825165
tp198
a(S'right'
p199
F481.31303191185
tp200
a(S'left'
p201
F481.9798607826233
tp202
a(S'right'
p203
F482.41281294822693
tp204
a(S'left'
p205
F483.02081179618835
tp206
a(S'right'
p207
F483.66142082214355
tp208
a(S'left'
p209
F484.29294180870056
tp210
a(S'right'
p211
F484.940771818161
tp212
a(S'left'
p213
F485.6134169101715
tp214
a(S'right'
p215
F486.2130320072174
tp216
a(S'left'
p217
F486.8687438964844
tp218
a(S'right'
p219
F487.5570938587189
tp220
a(S'left'
p221
F488.18094086647034
tp222
a(S'right'
p223
F488.8368968963623
tp224
a(S'left'
p225
F489.5411128997803
tp226
a(S'left'
p227
F490.18904280662537
tp228
a(S'left'
p229
F492.42903900146484
tp230
a(S'right'
p231
F493.11291885375977
tp232
a(S'left'
p233
F493.7797408103943
tp234
a(S'left'
p235
F494.33284878730774
tp236
a(S'left'
p237
F496.3169319629669
tp238
a(S'right'
p239
F496.63742685317993
tp240
a(S'right'
p241
F497.04621291160583
tp242
a(S'left'
p243
F497.71291995048523
tp244
a(S'left'
p245
F498.14598989486694
tp246
a(S'left'
p247
F499.6796817779541
tp248
a(S'left'
p249
F500.0928068161011
tp250
a(S'right'
p251
F500.9795358181
tp252
a(S'left'
p253
F501.64621090888977
tp254
a(S'right'
p255
F502.07929396629333
tp256
a(S'left'
p257
F502.6849479675293
tp258
a(S'left'
p259
F503.39594197273254
tp260
a(S'left'
p261
F504.02120780944824
tp262
a(S'right'
p263
F504.64492988586426
tp264
a(S'right'
p265
F505.33361983299255
tp266
a(S'left'
p267
F506.01258087158203
tp268
a(S'right'
p269
F507.2933340072632
tp270
asS'TS'
p271
(lp272
F478.57947182655334
aF479.56279492378235
aF480.54611682891846
aF481.52946186065674
aF482.5127739906311
aF483.4960849285126
aF484.4794228076935
aF485.4627728462219
aF486.4460859298706
aF487.4294059276581
aF488.41270995140076
aF489.3960499763489
aF490.3793568611145
aF491.3627178668976
aF492.34600377082825
aF493.32934379577637
aF494.3126518726349
aF495.29600191116333
aF496.2793068885803
aF497.2626619338989
aF498.2459418773651
aF499.229288816452
aF500.2125928401947
aF501.19593381881714
aF502.1792538166046
aF503.1625998020172
aF504.14589500427246
aF505.1292917728424
aF506.11253094673157
aF507.095853805542
assS'DA'
p273
(dp274
g131
(lp275
F595.6305918693542
aF596.2949869632721
aF596.9285237789154
aF597.5953388214111
aF598.2616407871246
aF598.8951678276062
aF599.5618209838867
aF600.2283339500427
aF600.8618087768555
aF601.5284659862518
aF602.1949307918549
aF602.8284618854523
aF603.495178937912
aF604.161563873291
aF604.7951128482819
aF605.4617578983307
aF606.1282258033752
aF606.7617349624634
aF607.428407907486
aF608.0948648452759
aF608.7283909320831
aF609.3951258659363
aF610.0615139007568
aF610.6950588226318
aF611.3616979122162
aF612.0281598567963
aF612.6616859436035
aF613.3283479213715
aF613.9948048591614
aF614.6283369064331
aF615.2950599193573
aF615.9615888595581
aF616.5949838161469
aF617.261647939682
aF617.9281048774719
aF618.5616269111633
aF619.2282979488373
aF619.894761800766
aF620.5283279418945
aF621.194995880127
aF621.8613917827606
aF622.4949309825897
aF623.1615920066833
aF623.8280489444733
aF624.4615747928619
aF625.1282467842102
asg133
(lp276
(S'space'
p277
F596.3169438838959
tp278
a(S'space'
p279
F597.3954789638519
tp280
a(S'space'
p281
F598.1649758815765
tp282
a(S'space'
p283
F599.1253190040588
tp284
a(S'space'
p285
F602.0950059890747
tp286
a(S'space'
p287
F603.2952609062195
tp288
a(S'space'
p289
F604.012925863266
tp290
a(S'space'
p291
F604.9973659515381
tp292
a(S'space'
p293
F605.9169328212738
tp294
a(S'space'
p295
F606.9413368701935
tp296
a(S'space'
p297
F608.9782719612122
tp298
a(S'space'
p299
F609.9169328212738
tp300
a(S'space'
p301
F611.1617569923401
tp302
a(S'space'
p303
F611.8369278907776
tp304
a(S'space'
p305
F612.8453269004822
tp306
a(S'space'
p307
F613.7889308929443
tp308
a(S'space'
p309
F614.8133277893066
tp310
a(S'space'
p311
F615.7489199638367
tp312
a(S'space'
p313
F616.7573339939117
tp314
a(S'space'
p315
F617.716933965683
tp316
a(S'space'
p317
F618.7413377761841
tp318
a(S'space'
p319
F619.6849229335785
tp320
a(S'space'
p321
F620.7781598567963
tp322
a(S'space'
p323
F621.7329258918762
tp324
a(S'space'
p325
F622.961681842804
tp326
a(S'space'
p327
F623.6529369354248
tp328
a(S'space'
p329
F624.6613137722015
tp330
asg189
(lp331
(S'right'
p332
F596.061233997345
tp333
a(S'left'
p334
F596.7285687923431
tp335
a(S'right'
p336
F597.395555973053
tp337
a(S'left'
p338
F597.828938961029
tp339
a(S'right'
p340
F598.4369149208069
tp341
a(S'left'
p342
F599.125364780426
tp343
a(S'left'
p344
F599.7329139709473
tp345
a(S'right'
p346
F601.0929298400879
tp347
a(S'left'
p348
F601.7729318141937
tp349
a(S'right'
p350
F602.4049217700958
tp351
a(S'left'
p352
F603.2953288555145
tp353
a(S'right'
p354
F603.6609168052673
tp355
a(S'left'
p356
F604.3489339351654
tp357
a(S'right'
p358
F604.997318983078
tp359
a(S'left'
p360
F605.5649178028107
tp361
a(S'right'
p362
F606.2369058132172
tp363
a(S'left'
p364
F606.9413819313049
tp365
a(S'left'
p366
F607.5729248523712
tp367
a(S'left'
p368
F608.2929308414459
tp369
a(S'right'
p370
F608.9783399105072
tp371
a(S'left'
p372
F609.580924987793
tp373
a(S'right'
p374
F610.276918888092
tp375
a(S'left'
p376
F611.1618030071259
tp377
a(S'right'
p378
F611.5249328613281
tp379
a(S'left'
p380
F612.1809418201447
tp381
a(S'right'
p382
F612.8453719615936
tp383
a(S'left'
p384
F613.4529268741608
tp385
a(S'right'
p386
F614.1009328365326
tp387
a(S'left'
p388
F614.8133738040924
tp389
a(S'right'
p390
F615.4129328727722
tp391
a(S'left'
p392
F616.0529208183289
tp393
a(S'right'
p394
F616.7573788166046
tp395
a(S'left'
p396
F617.3809108734131
tp397
a(S'right'
p398
F618.0769309997559
tp399
a(S'left'
p400
F618.7413818836212
tp401
a(S'left'
p402
F619.3489248752594
tp403
a(S'left'
p404
F620.0609269142151
tp405
a(S'right'
p406
F620.778226852417
tp407
a(S'left'
p408
F621.4529228210449
tp409
a(S'right'
p410
F622.2950148582458
tp411
a(S'left'
p412
F622.961749792099
tp413
a(S'right'
p414
F623.3569338321686
tp415
a(S'left'
p416
F623.9729328155518
tp417
a(S'right'
p418
F624.661358833313
tp419
asg271
(lp420
F595.9617118835449
aF596.9449949264526
aF597.9283077716827
aF598.9116189479828
aF599.8949539661407
aF600.8783068656921
aF601.8618099689484
aF602.8449378013611
aF603.8282489776611
aF604.8115849494934
aF605.7948949337006
aF606.7782139778137
aF607.7615439891815
aF608.7448799610138
aF609.728394985199
aF610.7115278244019
aF611.6948308944702
aF612.6781919002533
aF613.6614789962769
aF614.6448218822479
aF615.6281199455261
aF616.6114699840546
aF617.5947749614716
aF618.5781347751617
aF619.5614249706268
aF620.544764995575
aF621.5280649662018
aF622.5114109516144
aF623.4947288036346
aF624.4780349731445
assS'T'
p421
(dp422
g5
(lp423
F105.39978384971619
aF105.93309879302979
aF106.46642398834229
aF106.9997489452362
aF107.53307700157166
aF108.066410779953
aF108.59973478317261
aF109.13306188583374
aF109.66639399528503
aF110.19971799850464
aF110.73304677009583
aF111.26637887954712
aF111.79976081848145
aF112.33302998542786
aF112.86636281013489
aF113.39968800544739
aF113.93301486968994
aF114.46634697914124
aF114.99987196922302
aF115.53299880027771
aF116.06633496284485
aF116.59965491294861
aF117.13298392295837
aF117.66631388664246
aF118.1996397972107
aF118.73296785354614
aF119.26629877090454
aF119.79962277412415
aF120.33295178413391
aF120.86628079414368
aF121.39961099624634
aF121.93313598632812
aF122.46626687049866
aF122.9995927810669
aF123.53291988372803
aF124.06625294685364
aF124.59957695007324
aF125.13290500640869
aF125.66623497009277
aF126.19956088066101
aF126.7328929901123
aF127.26621985435486
aF127.79954600334167
aF128.33287286758423
aF128.86640691757202
aF129.39953184127808
aF129.9328589439392
aF130.46618795394897
aF130.9995138645172
aF131.5328438282013
aF132.06617283821106
aF132.59949898719788
aF133.13282680511475
aF133.6661570072174
aF134.19948387145996
aF134.73281288146973
aF135.2661418914795
aF135.7996687889099
aF136.33279395103455
aF136.86612796783447
asg7
(lp424
(S'return'
p425
F105.71672296524048
tp426
a(S'return'
p427
F106.25006985664368
tp428
a(S'return'
p429
F106.78342986106873
tp430
a(S'return'
p431
F107.3166778087616
tp432
a(S'return'
p433
F107.85023784637451
tp434
a(S'return'
p435
F108.3834159374237
tp436
a(S'return'
p437
F108.9166989326477
tp438
a(S'return'
p439
F109.44999384880066
tp440
a(S'return'
p441
F109.98338389396667
tp442
a(S'return'
p443
F110.51668190956116
tp444
a(S'return'
p445
F111.05000686645508
tp446
a(S'return'
p447
F111.58336782455444
tp448
a(S'return'
p449
F112.1166319847107
tp450
a(S'return'
p451
F112.6499559879303
tp452
a(S'return'
p453
F112.95674896240234
tp454
a(S'return'
p455
F113.49275183677673
tp456
a(S'return'
p457
F114.02874994277954
tp458
a(S'return'
p459
F114.56475496292114
tp460
a(S'return'
p461
F115.31659984588623
tp462
a(S'return'
p463
F115.84997487068176
tp464
a(S'return'
p465
F116.38331890106201
tp466
a(S'return'
p467
F116.91658282279968
tp468
a(S'return'
p469
F117.44991397857666
tp470
a(S'return'
p471
F117.98327779769897
tp472
a(S'return'
p473
F118.51655888557434
tp474
a(S'return'
p475
F119.04990077018738
tp476
a(S'return'
p477
F119.58325982093811
tp478
a(S'return'
p479
F120.11655497550964
tp480
a(S'return'
p481
F120.42875981330872
tp482
a(S'return'
p483
F120.9407389163971
tp484
a(S'return'
p485
F121.71653199195862
tp486
a(S'return'
p487
F122.24990391731262
tp488
a(S'return'
p489
F122.78323078155518
tp490
a(S'return'
p491
F123.31655383110046
tp492
a(S'return'
p493
F123.84988689422607
tp494
a(S'return'
p495
F124.3832139968872
tp496
a(S'return'
p497
F124.91649985313416
tp498
a(S'return'
p499
F125.44987177848816
tp500
a(S'return'
p501
F125.98320293426514
tp502
a(S'return'
p503
F126.51648879051208
tp504
a(S'return'
p505
F127.04984998703003
tp506
a(S'return'
p507
F127.58317494392395
tp508
a(S'return'
p509
F128.11647582054138
tp510
a(S'return'
p511
F128.6498007774353
tp512
a(S'return'
p513
F129.18317294120789
tp514
a(S'return'
p515
F129.71645593643188
tp516
a(S'return'
p517
F130.2498219013214
tp518
a(S'return'
p519
F130.7831518650055
tp520
a(S'return'
p521
F131.3164417743683
tp522
a(S'return'
p523
F131.8498089313507
tp524
a(S'return'
p525
F132.38313698768616
tp526
a(S'return'
p527
F132.91642689704895
tp528
a(S'return'
p529
F133.44975781440735
tp530
a(S'return'
p531
F133.98312091827393
tp532
a(S'return'
p533
F134.5164098739624
tp534
a(S'return'
p535
F134.80474996566772
tp536
a(S'return'
p537
F135.32474994659424
tp538
a(S'return'
p539
F135.86074495315552
tp540
a(S'return'
p541
F136.64972186088562
tp542
a(S'return'
p543
F137.1830928325653
tp544
assS'D'
p545
(dp546
g131
(lp547
F355.3496689796448
aF356.0140178203583
aF356.64753794670105
aF357.314190864563
aF357.9806489944458
aF358.6141917705536
aF359.28084087371826
aF359.9473628997803
aF360.5808298587799
aF361.2475469112396
aF361.9139440059662
aF362.5474708080292
aF363.2141327857971
aF363.8805818557739
aF364.5141348838806
aF365.18078088760376
aF365.847247838974
aF366.4807698726654
aF367.14748978614807
aF367.81388878822327
aF368.4474139213562
aF369.1140809059143
aF369.7805588245392
aF370.41407799720764
aF371.08072090148926
aF371.7471749782562
aF372.38072085380554
aF373.04743480682373
aF373.7138237953186
aF374.3473618030548
aF375.0140268802643
aF375.6804759502411
aF376.3140149116516
aF376.98065090179443
aF377.6471848487854
aF378.2806508541107
aF378.9473738670349
aF379.6137897968292
aF380.24739694595337
aF380.91395688056946
aF381.5804238319397
aF382.2140009403229
aF382.88060188293457
aF383.5471019744873
aF384.1805999279022
aF384.8473229408264
asg133
(lp548
(S'space'
p549
F356.4475967884064
tp550
a(S'space'
p551
F358.10070395469666
tp552
a(S'space'
p553
F359.26097679138184
tp554
a(S'space'
p555
F360.06074380874634
tp556
a(S'space'
p557
F363.0142238140106
tp558
a(S'space'
p559
F363.78063797950745
tp560
a(S'space'
p561
F365.74871277809143
tp562
a(S'space'
p563
F366.2808690071106
tp564
a(S'space'
p565
F366.9475829601288
tp566
a(S'space'
p567
F368.91413593292236
tp568
a(S'space'
p569
F369.7249228954315
tp570
a(S'space'
p571
F370.54903197288513
tp572
a(S'space'
p573
F371.64722990989685
tp574
a(S'space'
p575
F372.63080978393555
tp576
a(S'space'
p577
F373.6138758659363
tp578
a(S'space'
p579
F374.55705881118774
tp580
a(S'space'
p581
F375.49269580841064
tp582
a(S'space'
p583
F376.3810329437256
tp584
a(S'space'
p585
F377.36470580101013
tp586
a(S'space'
p587
F378.26096296310425
tp588
a(S'space'
p589
F379.34869384765625
tp590
a(S'space'
p591
F380.349004983902
tp592
a(S'space'
p593
F381.7490828037262
tp594
a(S'space'
p595
F384.40511989593506
tp596
asg189
(lp597
(S'right'
p598
F355.89302277565
tp599
a(S'left'
p600
F356.58868193626404
tp601
a(S'right'
p602
F357.24471282958984
tp603
a(S'left'
p604
F357.82869386672974
tp605
a(S'right'
p606
F358.4142699241638
tp607
a(S'left'
p608
F359.2610228061676
tp609
a(S'right'
p610
F359.70885181427
tp611
a(S'left'
p612
F360.3808717727661
tp613
a(S'right'
p614
F361.04762983322144
tp615
a(S'left'
p616
F363.01429295539856
tp617
a(S'right'
p618
F363.34070086479187
tp619
a(S'right'
p620
F364.3142178058624
tp621
a(S'left'
p622
F365.43699884414673
tp623
a(S'right'
p624
F366.28093791007996
tp625
a(S'left'
p626
F366.9476509094238
tp627
a(S'right'
p628
F367.35669898986816
tp629
a(S'left'
p630
F367.7327058315277
tp631
a(S'right'
p632
F368.91418194770813
tp633
a(S'left'
p634
F369.38870191574097
tp635
a(S'right'
p636
F370.2141628265381
tp637
a(S'left'
p638
F370.54898381233215
tp639
a(S'right'
p640
F371.2127208709717
tp641
a(S'left'
p642
F372.18080496788025
tp643
a(S'right'
p644
F372.54072284698486
tp645
a(S'left'
p646
F373.18071699142456
tp647
a(S'right'
p648
F374.1474537849426
tp649
a(S'left'
p650
F374.557009935379
tp651
a(S'right'
p652
F375.10076785087585
tp653
a(S'left'
p654
F375.83669877052307
tp655
a(S'right'
p656
F376.3809838294983
tp657
a(S'left'
p658
F376.99718499183655
tp659
a(S'right'
p660
F377.70070791244507
tp661
a(S'left'
p662
F378.2610077857971
tp663
a(S'right'
p664
F378.988716840744
tp665
a(S'left'
p666
F379.7087228298187
tp667
a(S'right'
p668
F380.34905099868774
tp669
a(S'left'
p670
F381.0207169055939
tp671
a(S'right'
p672
F381.39671087265015
tp673
a(S'left'
p674
F383.03680896759033
tp675
a(S'right'
p676
F384.4051687717438
tp677
asg271
(lp678
F355.68069195747375
aF356.66402077674866
aF357.647323846817
aF358.6306447982788
aF359.6139669418335
aF360.5973129272461
aF361.5806210041046
aF362.5639588832855
aF363.5472569465637
aF364.53059697151184
aF365.5139157772064
aF366.49725890159607
aF367.48056387901306
aF368.4639108181
aF369.4472098350525
aF370.43057084083557
aF371.4138469696045
aF372.3972029685974
aF373.3804919719696
aF374.36382484436035
aF375.3471508026123
aF376.33050990104675
aF377.31379199028015
aF378.2971398830414
aF379.2804458141327
aF380.2637848854065
aF381.2471489906311
aF382.2304599285126
aF383.2137358188629
aF384.1970567703247
asssS'LH'
p679
(dp680
g3
(dp681
g5
(lp682
F291.464852809906
aF291.9979498386383
aF292.53127694129944
aF293.0646059513092
aF293.59793281555176
aF294.13132786750793
aF294.6645908355713
aF295.1979179382324
aF295.73124980926514
aF296.26457381248474
aF296.7979018688202
aF297.33122992515564
aF297.8647577762604
aF298.39788699150085
aF298.9312160015106
aF299.4645428657532
aF299.99787187576294
aF300.5311989784241
aF301.0645258426666
aF301.5978548526764
aF302.131187915802
aF302.6645128726959
aF303.1978418827057
aF303.7311677932739
aF304.2644958496094
aF304.7980258464813
aF305.3311538696289
aF305.8645398616791
aF306.3978078365326
aF306.9312047958374
aF307.46446681022644
aF307.99779295921326
aF308.531121969223
aF309.0644509792328
aF309.59797191619873
aF310.13123393058777
aF310.66444396972656
aF311.19779896736145
aF311.7313058376312
aF312.26442193984985
aF312.7977488040924
aF313.3311228752136
aF313.86440682411194
aF314.39773297309875
aF314.9310929775238
aF315.4643919467926
aF315.9977159500122
aF316.5310809612274
aF317.06437397003174
aF317.59769582748413
aF318.13106298446655
aF318.6643569469452
aF319.19768381118774
aF319.7312259674072
aF320.2643418312073
aF320.7976689338684
aF321.3310239315033
aF321.8643248081207
aF322.3976538181305
aF322.9309859275818
asg7
(lp683
(S'd'
p684
F291.92484188079834
tp685
a(S'a'
p686
F292.31490898132324
tp687
a(S'd'
p688
F292.84819889068604
tp689
a(S'a'
p690
F293.11681389808655
tp691
a(S'd'
p692
F293.6368157863617
tp693
a(S'a'
p694
F294.1087899208069
tp695
a(S'd'
p696
F294.64480781555176
tp697
a(S'a'
p698
F295.1248149871826
tp699
a(S'd'
p700
F295.6848089694977
tp701
a(S'a'
p702
F296.1968469619751
tp703
a(S'd'
p704
F296.7568187713623
tp705
a(S'a'
p706
F297.2768077850342
tp707
a(S'd'
p708
F297.79684495925903
tp709
a(S'a'
p710
F298.3088159561157
tp711
a(S'd'
p712
F298.86880683898926
tp713
a(S'a'
p714
F299.42881178855896
tp715
a(S'd'
p716
F299.9248158931732
tp717
a(S'a'
p718
F300.48481798171997
tp719
a(S'd'
p720
F301.00480794906616
tp721
a(S'a'
p722
F301.5168089866638
tp723
a(S'd'
p724
F302.0368158817291
tp725
a(S'a'
p726
F302.55680799484253
tp727
a(S'd'
p728
F303.09280586242676
tp729
a(S'a'
p730
F303.58882188796997
tp731
a(S'd'
p732
F304.10881900787354
tp733
a(S'a'
p734
F304.6288118362427
tp735
a(S'd'
p736
F305.1488108634949
tp737
a(S'a'
p738
F305.66081500053406
tp739
a(S'd'
p740
F306.2608139514923
tp741
a(S'a'
p742
F306.79681491851807
tp743
a(S'd'
p744
F307.3968207836151
tp745
a(S'a'
p746
F307.95682287216187
tp747
a(S'd'
p748
F308.4768228530884
tp749
a(S'a'
p750
F309.0288097858429
tp751
a(S'd'
p752
F309.59811997413635
tp753
a(S'a'
p754
F310.1090598106384
tp755
a(S'd'
p756
F310.62085795402527
tp757
a(S'a'
p758
F311.15683484077454
tp759
a(S'd'
p760
F311.70082092285156
tp761
a(S'a'
p762
F312.26448583602905
tp763
a(S'd'
p764
F312.7728178501129
tp765
a(S'a'
p766
F313.33287286758423
tp767
a(S'd'
p768
F313.8928208351135
tp769
a(S'a'
p770
F314.4288139343262
tp771
a(S'd'
p772
F314.94888186454773
tp773
a(S'a'
p774
F315.5248279571533
tp775
a(S'd'
p776
F316.0608208179474
tp777
a(S'a'
p778
F316.5808148384094
tp779
a(S'd'
p780
F317.0768117904663
tp781
a(S'a'
p782
F317.5977578163147
tp783
a(S'd'
p784
F318.09281396865845
tp785
a(S'a'
p786
F318.6644198894501
tp787
a(S'd'
p788
F319.22881388664246
tp789
a(S'a'
p790
F319.7648148536682
tp791
a(S'd'
p792
F320.3248198032379
tp793
a(S'a'
p794
F320.8608229160309
tp795
a(S'd'
p796
F321.42081689834595
tp797
a(S'a'
p798
F322.18128085136414
tp799
a(S'd'
p800
F322.7146120071411
tp801
a(S'a'
p802
F323.2479717731476
tp803
assg129
(dp804
g131
(lp805
F541.1811208724976
aF541.845508813858
aF542.4790568351746
aF543.1456928253174
aF543.8121688365936
aF544.4457068443298
aF545.1123468875885
aF545.7788219451904
aF546.4123439788818
aF547.0790538787842
aF547.7454519271851
aF548.3789978027344
aF549.0456500053406
aF549.7120988368988
aF550.3456339836121
aF551.0122900009155
aF551.6787519454956
aF552.3122878074646
aF552.9789879322052
aF553.645397901535
aF554.2789249420166
aF554.9455759525299
aF555.6120498180389
aF556.2455928325653
aF556.9122359752655
aF557.5786938667297
aF558.2122240066528
aF558.8789417743683
aF559.5453538894653
aF560.1788709163666
aF560.8455278873444
aF561.51198387146
aF562.1455118656158
aF562.8121719360352
aF563.4786479473114
aF564.1123788356781
aF564.7788879871368
aF565.4452929496765
aF566.0788168907166
aF566.7454679012299
aF567.4119248390198
aF568.0454478263855
aF568.7121298313141
aF569.3785829544067
aF570.0121078491211
aF570.6788167953491
asg133
(lp806
(S'return'
p807
F541.9008948802948
tp808
a(S'return'
p809
F542.4128928184509
tp810
a(S'return'
p811
F543.7729048728943
tp812
a(S'return'
p813
F544.9124548435211
tp814
a(S'return'
p815
F545.980908870697
tp816
a(S'return'
p817
F546.8791468143463
tp818
a(S'return'
p819
F547.6689059734344
tp820
a(S'return'
p821
F548.2209069728851
tp822
a(S'return'
p823
F548.8457508087158
tp824
a(S'return'
p825
F549.7288239002228
tp826
a(S'return'
p827
F550.8123970031738
tp828
a(S'return'
p829
F551.5089128017426
tp830
a(S'return'
p831
F552.5013659000397
tp832
a(S'return'
p833
F553.3489158153534
tp834
a(S'return'
p835
F554.3893518447876
tp836
a(S'return'
p837
F555.4369149208069
tp838
a(S'return'
p839
F556.4133479595184
tp840
a(S'return'
p841
F557.2769048213959
tp842
a(S'return'
p843
F558.3733429908752
tp844
a(S'return'
p845
F559.364914894104
tp846
a(S'return'
p847
F560.341362953186
tp848
a(S'return'
p849
F561.2929039001465
tp850
a(S'return'
p851
F562.3413608074188
tp852
a(S'return'
p853
F563.3169159889221
tp854
a(S'return'
p855
F564.2853479385376
tp856
a(S'return'
p857
F565.1409418582916
tp858
a(S'return'
p859
F566.1493558883667
tp860
a(S'return'
p861
F567.1649088859558
tp862
a(S'return'
p863
F568.213357925415
tp864
a(S'return'
p865
F569.1649119853973
tp866
a(S'return'
p867
F570.1653649806976
tp868
asg189
(lp869
(S'd'
p870
F541.7170000076294
tp871
a(S'a'
p872
F542.2791450023651
tp873
a(S'a'
p874
F543.5089428424835
tp875
a(S'd'
p876
F544.2457828521729
tp877
a(S'a'
p878
F544.912407875061
tp879
a(S'a'
p880
F545.3729169368744
tp881
a(S'a'
p882
F547.4449019432068
tp883
a(S'd'
p884
F548.1790828704834
tp885
a(S'a'
p886
F548.8457028865814
tp887
a(S'a'
p888
F549.3649079799652
tp889
a(S'd'
p890
F549.4609417915344
tp891
a(S'a'
p892
F550.1457259654999
tp893
a(S'd'
p894
F550.8123497962952
tp895
a(S'a'
p896
F551.2049028873444
tp897
a(S'd'
p898
F551.8368978500366
tp899
a(S'a'
p900
F552.5013189315796
tp901
a(S'd'
p902
F553.0449068546295
tp903
a(S'a'
p904
F553.6621618270874
tp905
a(S'd'
p906
F554.3893048763275
tp907
a(S'a'
p908
F555.1088888645172
tp909
a(S'd'
p910
F555.7649049758911
tp911
a(S'a'
p912
F556.4133009910583
tp913
a(S'd'
p914
F556.9969079494476
tp915
a(S'a'
p916
F557.6289138793945
tp917
a(S'd'
p918
F558.3732957839966
tp919
a(S'a'
p920
F559.0209047794342
tp921
a(S'd'
p922
F559.6769139766693
tp923
a(S'a'
p924
F560.341315984726
tp925
a(S'd'
p926
F561.0048978328705
tp927
a(S'a'
p928
F561.6129009723663
tp929
a(S'd'
p930
F562.3413138389587
tp931
a(S'a'
p932
F563.0049149990082
tp933
a(S'd'
p934
F563.6209089756012
tp935
a(S'a'
p936
F564.2853009700775
tp937
a(S'd'
p938
F564.8769059181213
tp939
a(S'a'
p940
F565.4619979858398
tp941
a(S'd'
p942
F566.1493089199066
tp943
a(S'a'
p944
F566.8129088878632
tp945
a(S'd'
p946
F567.5329117774963
tp947
a(S'a'
p948
F568.2133119106293
tp949
a(S'd'
p950
F568.8609149456024
tp951
a(S'a'
p952
F569.4929139614105
tp953
a(S'd'
p954
F570.1653168201447
tp955
asg271
(lp956
F541.5121870040894
aF542.4955279827118
aF543.4788389205933
aF544.4621939659119
aF545.4454808235168
aF546.4288239479065
aF547.4121217727661
aF548.3954699039459
aF549.3787848949432
aF550.3621368408203
aF551.3454329967499
aF552.3287668228149
aF553.3120729923248
aF554.2953848838806
aF555.2787158489227
aF556.2620849609375
aF557.2453598976135
aF558.2287077903748
aF559.2120118141174
aF560.1953539848328
aF561.1786708831787
aF562.1620008945465
aF563.1453039646149
aF564.1286478042603
aF565.1119608879089
aF566.0952718257904
aF567.078596830368
aF568.0619449615479
aF569.0452539920807
aF570.028589963913
assg273
(dp957
g131
(lp958
F647.1800727844238
aF647.8444759845734
aF648.4780128002167
aF649.1446628570557
aF649.8111879825592
aF650.4446609020233
aF651.1113798618317
aF651.7777738571167
aF652.4113547801971
aF653.0779519081116
aF653.7444248199463
aF654.3779559135437
aF655.0446047782898
aF655.7111029624939
aF656.3445987701416
aF657.0113108158112
aF657.6777198314667
aF658.3112549781799
aF658.9778888225555
aF659.6443548202515
aF660.2778828144073
aF660.9445419311523
aF661.6110458374023
aF662.244530916214
aF662.9112679958344
aF663.5776669979095
aF664.2114160060883
aF664.8778448104858
aF665.5442988872528
aF666.1778469085693
aF666.8444888591766
aF667.5109558105469
aF668.1444759368896
aF668.8111889362335
aF669.4775989055634
aF670.1111409664154
aF670.7777760028839
aF671.4442458152771
aF672.0779860019684
aF672.7444269657135
aF673.4109089374542
aF674.044420003891
aF674.7111368179321
aF675.3775417804718
aF676.0110747814178
aF676.6777219772339
asg133
(lp959
(S'return'
p960
F647.8049399852753
tp961
a(S'return'
p962
F648.7280719280243
tp963
a(S'return'
p964
F649.6289498806
tp965
a(S'return'
p966
F650.5574238300323
tp967
a(S'return'
p968
F651.4929349422455
tp969
a(S'return'
p970
F652.5493769645691
tp971
a(S'return'
p972
F653.4769268035889
tp973
a(S'return'
p974
F654.4853978157043
tp975
a(S'return'
p976
F655.436949968338
tp977
a(S'return'
p978
F656.4533908367157
tp979
a(S'return'
p980
F657.380940914154
tp981
a(S'return'
p982
F658.3974149227142
tp983
a(S'return'
p984
F659.3492479324341
tp985
a(S'return'
p986
F660.38139295578
tp987
a(S'return'
p988
F661.3729259967804
tp989
a(S'return'
p990
F662.3893918991089
tp991
a(S'return'
p992
F663.3169457912445
tp993
a(S'return'
p994
F664.3493947982788
tp995
a(S'return'
p996
F665.316948890686
tp997
a(S'return'
p998
F666.3333718776703
tp999
a(S'return'
p1000
F667.2609298229218
tp1001
a(S'return'
p1002
F668.3413858413696
tp1003
a(S'return'
p1004
F669.2689499855042
tp1005
a(S'return'
p1006
F670.341386795044
tp1007
a(S'return'
p1008
F671.276969909668
tp1009
a(S'return'
p1010
F672.2773768901825
tp1011
a(S'return'
p1012
F673.2609579563141
tp1013
a(S'return'
p1014
F674.2293779850006
tp1015
a(S'return'
p1016
F675.1649439334869
tp1017
a(S'return'
p1018
F676.1813538074493
tp1019
asg189
(lp1020
(S'd'
p1021
F647.5809869766235
tp1022
a(S'a'
p1023
F648.2781109809875
tp1024
a(S'd'
p1025
F648.7281179428101
tp1026
a(S'a'
p1027
F649.3013029098511
tp1028
a(S'd'
p1029
F649.9329488277435
tp1030
a(S'a'
p1031
F650.557375907898
tp1032
a(S'd'
p1033
F651.2049448490143
tp1034
a(S'a'
p1035
F651.8369469642639
tp1036
a(S'd'
p1037
F652.549329996109
tp1038
a(S'a'
p1039
F653.1489489078522
tp1040
a(S'd'
p1041
F653.8049488067627
tp1042
a(S'a'
p1043
F654.4853508472443
tp1044
a(S'd'
p1045
F655.1329379081726
tp1046
a(S'a'
p1047
F655.764949798584
tp1048
a(S'd'
p1049
F656.4533448219299
tp1050
a(S'a'
p1051
F657.0609419345856
tp1052
a(S'd'
p1053
F657.6944308280945
tp1054
a(S'a'
p1055
F658.3973670005798
tp1056
a(S'd'
p1057
F659.0449459552765
tp1058
a(S'a'
p1059
F659.6610808372498
tp1060
a(S'd'
p1061
F660.38134598732
tp1062
a(S'a'
p1063
F660.9649789333344
tp1064
a(S'd'
p1065
F661.6849398612976
tp1066
a(S'a'
p1067
F662.3893449306488
tp1068
a(S'd'
p1069
F663.0369729995728
tp1070
a(S'a'
p1071
F663.6209409236908
tp1072
a(S'd'
p1073
F664.3493468761444
tp1074
a(S'a'
p1075
F664.9729459285736
tp1076
a(S'd'
p1077
F665.6289467811584
tp1078
a(S'a'
p1079
F666.3333258628845
tp1080
a(S'd'
p1081
F666.9809539318085
tp1082
a(S'a'
p1083
F667.5889439582825
tp1084
a(S'd'
p1085
F668.3413398265839
tp1086
a(S'a'
p1087
F668.980950832367
tp1088
a(S'd'
p1089
F669.6369469165802
tp1090
a(S'a'
p1091
F670.3413398265839
tp1092
a(S'd'
p1093
F670.9889569282532
tp1094
a(S'a'
p1095
F671.6049699783325
tp1096
a(S'd'
p1097
F672.2774229049683
tp1098
a(S'a'
p1099
F672.9569578170776
tp1100
a(S'd'
p1101
F673.5889430046082
tp1102
a(S'a'
p1103
F674.2293319702148
tp1104
a(S'd'
p1105
F674.8609499931335
tp1106
a(S'a'
p1107
F675.4929528236389
tp1108
a(S'd'
p1109
F676.1814007759094
tp1110
asg271
(lp1111
F647.5111479759216
aF648.4945089817047
aF649.4777989387512
aF650.4611368179321
aF651.4444358348846
aF652.4277858734131
aF653.4111349582672
aF654.3944518566132
aF655.3777449131012
aF656.361077785492
aF657.3443918228149
aF658.3277277946472
aF659.3110659122467
aF660.294392824173
aF661.277685880661
aF662.2610218524933
aF663.2443218231201
aF664.2276678085327
aF665.2109699249268
aF666.1943337917328
aF667.177628993988
aF668.1609649658203
aF669.1442768573761
aF670.1276118755341
aF671.1109209060669
aF672.0942759513855
aF673.0775718688965
aF674.0609059333801
aF675.0442218780518
aF676.0275518894196
assg421
(dp1112
g5
(lp1113
F170.68248081207275
aF171.21578788757324
aF171.7493178844452
aF172.2824468612671
aF172.815771818161
aF173.34910082817078
aF173.8824338912964
aF174.41576194763184
aF174.94908380508423
aF175.4824140071869
aF176.01573991775513
aF176.5490689277649
aF177.08240389823914
aF177.6157248020172
aF178.14905190467834
aF178.6823868751526
aF179.21570777893066
aF179.7492389678955
aF180.2823669910431
aF180.8156909942627
aF181.34902000427246
aF181.88235187530518
aF182.41568183898926
aF182.94900584220886
aF183.48233580589294
aF184.01565885543823
aF184.54899382591248
aF185.08232188224792
aF185.6156449317932
aF186.14897179603577
aF186.68230295181274
aF187.2156310081482
aF187.74915885925293
aF188.28228998184204
aF188.81561398506165
aF189.3489408493042
aF189.8822729587555
aF190.41559886932373
aF190.9489278793335
aF191.48225688934326
aF192.01558184623718
aF192.54891300201416
aF193.0823109149933
aF193.61556696891785
aF194.1488959789276
aF194.68222784996033
aF195.21555185317993
aF195.74908089637756
aF196.28220891952515
aF196.8155357837677
aF197.34886193275452
aF197.88219785690308
aF198.41552090644836
aF198.9488468170166
aF199.4821789264679
aF200.01550483703613
aF200.54883098602295
aF201.08216381072998
aF201.61548900604248
aF202.14881896972656
asg7
(lp1114
(S'space'
p1115
F170.99943685531616
tp1116
a(S'space'
p1117
F171.5327069759369
tp1118
a(S'space'
p1119
F172.06610083580017
tp1120
a(S'space'
p1121
F172.59946489334106
tp1122
a(S'space'
p1123
F173.1327018737793
tp1124
a(S'space'
p1125
F173.66603684425354
tp1126
a(S'space'
p1127
F174.1994469165802
tp1128
a(S'space'
p1129
F174.73268389701843
tp1130
a(S'space'
p1131
F175.26605892181396
tp1132
a(S'space'
p1133
F175.79941082000732
tp1134
a(S'space'
p1135
F176.33266496658325
tp1136
a(S'space'
p1137
F176.86599278450012
tp1138
a(S'space'
p1139
F177.39939498901367
tp1140
a(S'space'
p1141
F177.932687997818
tp1142
a(S'space'
p1143
F178.46598386764526
tp1144
a(S'space'
p1145
F178.99936985969543
tp1146
a(S'space'
p1147
F179.53264093399048
tp1148
a(S'space'
p1149
F179.82865285873413
tp1150
a(S'space'
p1151
F180.34862279891968
tp1152
a(S'space'
p1153
F180.86862683296204
tp1154
a(S'space'
p1155
F181.42863583564758
tp1156
a(S'space'
p1157
F181.96465682983398
tp1158
a(S'space'
p1159
F182.50062680244446
tp1160
a(S'space'
p1161
F183.03664088249207
tp1162
a(S'space'
p1163
F183.58063387870789
tp1164
a(S'space'
p1165
F184.33258891105652
tp1166
a(S'space'
p1167
F184.86594486236572
tp1168
a(S'space'
p1169
F185.39927577972412
tp1170
a(S'space'
p1171
F185.70862197875977
tp1172
a(S'space'
p1173
F186.46589589118958
tp1174
a(S'space'
p1175
F186.9992687702179
tp1176
a(S'space'
p1177
F187.53255796432495
tp1178
a(S'space'
p1179
F187.83661890029907
tp1180
a(S'space'
p1181
F188.340637922287
tp1182
a(S'space'
p1183
F189.1325399875641
tp1184
a(S'space'
p1185
F189.66586995124817
tp1186
a(S'space'
p1187
F190.19923090934753
tp1188
a(S'space'
p1189
F190.50862979888916
tp1190
a(S'space'
p1191
F191.0446379184723
tp1192
a(S'space'
p1193
F191.56460881233215
tp1194
a(S'space'
p1195
F192.10061979293823
tp1196
a(S'space'
p1197
F192.64462685585022
tp1198
a(S'space'
p1199
F193.18062686920166
tp1200
a(S'space'
p1201
F193.9325249195099
tp1202
a(S'space'
p1203
F194.23662400245667
tp1204
a(S'space'
p1205
F194.7566478252411
tp1206
a(S'space'
p1207
F195.2926149368286
tp1208
a(S'space'
p1209
F195.82863187789917
tp1210
a(S'space'
p1211
F196.3246247768402
tp1212
a(S'space'
p1213
F196.84463477134705
tp1214
a(S'space'
p1215
F197.34892296791077
tp1216
a(S'space'
p1217
F197.9006359577179
tp1218
a(S'space'
p1219
F198.4366419315338
tp1220
a(S'space'
p1221
F198.99662685394287
tp1222
a(S'space'
p1223
F199.57262778282166
tp1224
a(S'space'
p1225
F200.09260892868042
tp1226
a(S'space'
p1227
F200.62863779067993
tp1228
a(S'space'
p1229
F201.14862394332886
tp1230
a(S'space'
p1231
F201.70862698554993
tp1232
a(S'space'
p1233
F202.22064590454102
tp1234
assg545
(dp1235
g131
(lp1236
F414.732608795166
aF415.3967638015747
aF416.0303018093109
aF416.6969439983368
aF417.363401889801
aF417.9969449043274
aF418.6636447906494
aF419.3300759792328
aF419.9635798931122
aF420.630224943161
aF421.2967050075531
aF421.93022990226746
aF422.59689497947693
aF423.2633469104767
aF423.8968708515167
aF424.5635938644409
aF425.2300009727478
aF425.8635268211365
aF426.5302309989929
aF427.1966428756714
aF427.83016896247864
aF428.49682879447937
aF429.1632959842682
aF429.796817779541
aF430.46353697776794
aF431.12993478775024
aF431.7634699344635
aF432.4301269054413
aF433.09657979011536
aF433.7301127910614
aF434.3967719078064
aF435.063236951828
aF435.69675493240356
aF436.36348485946655
aF437.0298798084259
aF437.6634018421173
aF438.33007884025574
aF438.9965238571167
aF439.6300399303436
aF440.29672479629517
aF440.96317291259766
aF441.59669399261475
aF442.2634198665619
aF442.93003392219543
aF443.56333899497986
aF444.23000478744507
asg133
(lp1237
(S'return'
p1238
F415.5087699890137
tp1239
a(S'return'
p1240
F416.497092962265
tp1241
a(S'return'
p1242
F417.3801209926605
tp1243
a(S'return'
p1244
F418.46381282806396
tp1245
a(S'return'
p1246
F419.17274284362793
tp1247
a(S'return'
p1248
F420.0290539264679
tp1249
a(S'return'
p1250
F421.1167359352112
tp1251
a(S'return'
p1252
F422.10102891921997
tp1253
a(S'return'
p1254
F423.0848078727722
tp1255
a(S'return'
p1256
F424.0613639354706
tp1257
a(S'return'
p1258
F425.02874183654785
tp1259
a(S'return'
p1260
F426.03711199760437
tp1261
a(S'return'
p1262
F431.18894481658936
tp1263
a(S'return'
p1264
F432.2302258014679
tp1265
a(S'return'
p1266
F432.91679286956787
tp1267
a(S'return'
p1268
F433.885125875473
tp1269
a(S'return'
p1270
F434.79675793647766
tp1271
a(S'return'
p1272
F435.7571589946747
tp1273
a(S'return'
p1274
F436.78076100349426
tp1275
a(S'return'
p1276
F437.7733428478241
tp1277
a(S'return'
p1278
F438.76475286483765
tp1279
a(S'return'
p1280
F439.8133249282837
tp1281
a(S'return'
p1282
F440.7887759208679
tp1283
a(S'return'
p1284
F441.78109884262085
tp1285
a(S'return'
p1286
F442.7327468395233
tp1287
a(S'return'
p1288
F443.781094789505
tp1289
asg189
(lp1290
(S'd'
p1291
F415.18104100227356
tp1292
a(S'a'
p1293
F415.8304319381714
tp1294
a(S'd'
p1295
F416.49703788757324
tp1296
a(S'a'
p1297
F417.0468199253082
tp1298
a(S'd'
p1299
F417.79699182510376
tp1300
a(S'a'
p1301
F418.4637408256531
tp1302
a(S'd'
p1303
F418.8127439022064
tp1304
a(S'a'
p1305
F419.4608609676361
tp1306
a(S'd'
p1307
F420.0290069580078
tp1308
a(S'a'
p1309
F420.73290181159973
tp1310
a(S'd'
p1311
F421.46877098083496
tp1312
a(S'a'
p1313
F422.10107684135437
tp1314
a(S'd'
p1315
F422.7169268131256
tp1316
a(S'a'
p1317
F423.3887348175049
tp1318
a(S'd'
p1319
F424.0613157749176
tp1320
a(S'a'
p1321
F424.70074582099915
tp1322
a(S'd'
p1323
F425.3967487812042
tp1324
a(S'a'
p1325
F426.0370647907257
tp1326
a(S'a'
p1327
F426.68494486808777
tp1328
a(S'd'
p1329
F427.0966899394989
tp1330
a(S'a'
p1331
F428.82905292510986
tp1332
a(S'd'
p1333
F429.10886693000793
tp1334
a(S'd'
p1335
F430.2636229991913
tp1336
a(S'd'
p1337
F430.72491693496704
tp1338
a(S'a'
p1339
F431.5635178089142
tp1340
a(S'd'
p1341
F432.2301788330078
tp1342
a(S'a'
p1343
F432.5648148059845
tp1344
a(S'd'
p1345
F433.26088094711304
tp1346
a(S'a'
p1347
F433.8850779533386
tp1348
a(S'd'
p1349
F434.47687792778015
tp1350
a(S'a'
p1351
F435.10890793800354
tp1352
a(S'd'
p1353
F435.757111787796
tp1354
a(S'a'
p1355
F436.4128119945526
tp1356
a(S'd'
p1357
F437.10873794555664
tp1358
a(S'a'
p1359
F437.773295879364
tp1360
a(S'd'
p1361
F438.4047598838806
tp1362
a(S'a'
p1363
F439.13288283348083
tp1364
a(S'd'
p1365
F439.8133728504181
tp1366
a(S'a'
p1367
F440.4449129104614
tp1368
a(S'd'
p1369
F441.1247639656067
tp1370
a(S'a'
p1371
F441.78105092048645
tp1372
a(S'a'
p1373
F442.3887839317322
tp1374
a(S'a'
p1375
F443.06074500083923
tp1376
a(S'd'
p1377
F443.78114199638367
tp1378
asg271
(lp1379
F415.06343483924866
aF416.0499289035797
aF417.03008794784546
aF418.01341581344604
aF418.9967288970947
aF419.9802839756012
aF420.96336698532104
aF421.9466938972473
aF422.9300148487091
aF423.91333293914795
aF424.89665484428406
aF425.880007982254
aF426.8635277748108
aF427.84663486480713
aF428.8299617767334
aF429.8132748603821
aF430.79660987854004
aF431.77994990348816
aF432.7632529735565
aF433.74661684036255
aF434.7301149368286
aF435.71324396133423
aF436.69654989242554
aF437.67988991737366
aF438.6632008552551
aF439.64651799201965
aF440.6298429965973
aF441.6131868362427
aF442.5964848995209
aF443.5798318386078
asss.